
========================================================================

** ELF Header Information

    File Name: .\soc.axf

    Machine class: ELFCLASS32 (32-bit)
    Data encoding: ELFDATA2LSB (Little endian)
    Header version: EV_CURRENT (Current version)
    Operating System ABI: none
    ABI Version: 0
    File Type: ET_EXEC (Executable) (2)
    Machine: EM_ARM (ARM)

    Image Entry point: 0x00000071
    Flags: EF_ARM_HASENTRY + EF_ARM_ABI_FLOAT_SOFT (0x05000202)

    ARM ELF revision: 5 (ABI version 2)

    Conforms to Soft float procedure-call standard

    Built with
    Component: ARM Compiler 5.06 update 6 (build 750) Tool: armasm [4d35ec]
    Component: ARM Compiler 5.06 update 6 (build 750) Tool: armlink [4d35ed]

    Header size: 52 bytes (0x34)
    Program header entry size: 32 bytes (0x20)
    Section header entry size: 40 bytes (0x28)

    Program header entries: 1
    Section header entries: 16

    Program header offset: 126956 (0x0001efec)
    Section header offset: 126988 (0x0001f00c)

    Section header string table index: 15

========================================================================

** Program header #0

    Type          : PT_LOAD (1)
    File Offset   : 52 (0x34)
    Virtual Addr  : 0x00000000
    Physical Addr : 0x00000000
    Size in file  : 10760 bytes (0x2a08)
    Size in memory: 43532 bytes (0xaa0c)
    Flags         : PF_X + PF_W + PF_R + PF_ARM_ENTRY (0x80000007)
    Alignment     : 8


========================================================================

** Section #1

    Name        : ER_IROM1
    Type        : SHT_PROGBITS (0x00000001)
    Flags       : SHF_ALLOC + SHF_EXECINSTR (0x00000006)
    Addr        : 0x00000000
    File Offset : 52 (0x34)
    Size        : 10748 bytes (0x29fc)
    Link        : SHN_UNDEF
    Info        : 0
    Alignment   : 4
    Entry Size  : 0

    $d.realdata
    RESET
    __Vectors
        0x00000000:    20008010    ...     DCD    536903696
        0x00000004:    00000085    ....    DCD    133
        0x00000008:    0000008d    ....    DCD    141
        0x0000000c:    00000095    ....    DCD    149
        0x00000010:    0000009d    ....    DCD    157
        0x00000014:    000000a5    ....    DCD    165
        0x00000018:    000000ad    ....    DCD    173
        0x0000001c:    00000000    ....    DCD    0
        0x00000020:    00000000    ....    DCD    0
        0x00000024:    00000000    ....    DCD    0
        0x00000028:    00000000    ....    DCD    0
        0x0000002c:    000000b5    ....    DCD    181
        0x00000030:    000000bd    ....    DCD    189
        0x00000034:    00000000    ....    DCD    0
        0x00000038:    000000c5    ....    DCD    197
        0x0000003c:    000000cd    ....    DCD    205
        0x00000040:    00000107    ....    DCD    263
        0x00000044:    0000010f    ....    DCD    271
        0x00000048:    00000117    ....    DCD    279
        0x0000004c:    0000011f    ....    DCD    287
        0x00000050:    000000d5    ....    DCD    213
        0x00000054:    000000dd    ....    DCD    221
        0x00000058:    000000e5    ....    DCD    229
        0x0000005c:    00000105    ....    DCD    261
        0x00000060:    000000ed    ....    DCD    237
        0x00000064:    000000f5    ....    DCD    245
        0x00000068:    000000fd    ....    DCD    253
        0x0000006c:    00000127    '...    DCD    295
    $t
    .ARM.Collect$$$$00000000
    .ARM.Collect$$$$00000001
    __Vectors_End
    __main
    _main_stk
        0x00000070:    f8dfd00c    ....    LDR      sp,__lit__00000000 ; [0x80] = 0x20008010
    .ARM.Collect$$$$00000004
    _main_scatterload
        0x00000074:    f000f872    ..r.    BL       __scatterload ; 0x15c
    .ARM.Collect$$$$00000008
    .ARM.Collect$$$$0000000A
    .ARM.Collect$$$$0000000B
    __main_after_scatterload
    _main_clock
    _main_cpp_init
    _main_init
        0x00000078:    4800        .H      LDR      r0,[pc,#0] ; [0x7c] = 0x1649
        0x0000007a:    4700        .G      BX       r0
    $d
        0x0000007c:    00001649    I...    DCD    5705
    .ARM.Collect$$$$00002712
    __lit__00000000
    .ARM.Collect$$$$0000000D
    .ARM.Collect$$$$0000000F
    __rt_final_cpp
    __rt_final_exit
        0x00000080:    20008010    ...     DCD    536903696
    $t
    .text
    Reset_Handler
        0x00000084:    482a        *H      LDR      r0,[pc,#168] ; [0x130] = 0x1569
        0x00000086:    4780        .G      BLX      r0
        0x00000088:    482a        *H      LDR      r0,[pc,#168] ; [0x134] = 0x71
        0x0000008a:    4700        .G      BX       r0
    NMI_Handler
        0x0000008c:    b500        ..      PUSH     {lr}
        0x0000008e:    f001f9dc    ....    BL       NMIHandler ; 0x144a
        0x00000092:    bd00        ..      POP      {pc}
    HardFault_Handler
        0x00000094:    b500        ..      PUSH     {lr}
        0x00000096:    f000fe56    ..V.    BL       HardFaultHandler ; 0xd46
        0x0000009a:    bd00        ..      POP      {pc}
    MemManage_Handler
        0x0000009c:    b500        ..      PUSH     {lr}
        0x0000009e:    f001f9d3    ....    BL       MemManageHandler ; 0x1448
        0x000000a2:    bd00        ..      POP      {pc}
    BusFault_Handler
        0x000000a4:    b500        ..      PUSH     {lr}
        0x000000a6:    f000fbd1    ....    BL       BusFaultHandler ; 0x84c
        0x000000aa:    bd00        ..      POP      {pc}
    UsageFault_Handler
        0x000000ac:    b500        ..      PUSH     {lr}
        0x000000ae:    f001faba    ....    BL       UsageFaultHandler ; 0x1626
        0x000000b2:    bd00        ..      POP      {pc}
    SVC_Handler
        0x000000b4:    b500        ..      PUSH     {lr}
        0x000000b6:    f001fa03    ....    BL       SVCHandler ; 0x14c0
        0x000000ba:    bd00        ..      POP      {pc}
    DebugMon_Handler
        0x000000bc:    b500        ..      PUSH     {lr}
        0x000000be:    f000fe31    ..1.    BL       DebugMonHandler ; 0xd24
        0x000000c2:    bd00        ..      POP      {pc}
    PendSV_Handler
        0x000000c4:    b500        ..      PUSH     {lr}
        0x000000c6:    f001f9cc    ....    BL       PendSVHandler ; 0x1462
        0x000000ca:    bd00        ..      POP      {pc}
    SysTick_Handler
        0x000000cc:    b500        ..      PUSH     {lr}
        0x000000ce:    f001fa35    ..5.    BL       SysTickHandler ; 0x153c
        0x000000d2:    bd00        ..      POP      {pc}
    UARTRX_Handler
        0x000000d4:    b500        ..      PUSH     {lr}
        0x000000d6:    f001faa4    ....    BL       UARTRXHandler ; 0x1622
        0x000000da:    bd00        ..      POP      {pc}
    UARTTX_Handler
        0x000000dc:    b500        ..      PUSH     {lr}
        0x000000de:    f001faa1    ....    BL       UARTTXHandler ; 0x1624
        0x000000e2:    bd00        ..      POP      {pc}
    UARTOVR_Handler
        0x000000e4:    b500        ..      PUSH     {lr}
        0x000000e6:    f001fa9b    ....    BL       UARTOVRHandler ; 0x1620
        0x000000ea:    bd00        ..      POP      {pc}
    ACCConvDone_Handler
        0x000000ec:    b500        ..      PUSH     {lr}
        0x000000ee:    f000f847    ..G.    BL       ACCConvDoneHandler ; 0x180
        0x000000f2:    bd00        ..      POP      {pc}
    ACCNoFace_Handler
        0x000000f4:    b500        ..      PUSH     {lr}
        0x000000f6:    f000f861    ..a.    BL       ACCNoFaceHandler ; 0x1bc
        0x000000fa:    bd00        ..      POP      {pc}
    ACCReadResults_Handler
        0x000000fc:    b500        ..      PUSH     {lr}
        0x000000fe:    f000f863    ..c.    BL       ACCReadResultsHandler ; 0x1c8
        0x00000102:    bd00        ..      POP      {pc}
    DMAWakeup_Handler
        0x00000104:    4770        pG      BX       lr
    KEY0_Handler
        0x00000106:    b507        ..      PUSH     {r0-r2,lr}
        0x00000108:    f000fe1e    ....    BL       Key0Handler ; 0xd48
        0x0000010c:    bd07        ..      POP      {r0-r2,pc}
    KEY1_Handler
        0x0000010e:    b507        ..      PUSH     {r0-r2,lr}
        0x00000110:    f000fe20    .. .    BL       Key1Handler ; 0xd54
        0x00000114:    bd07        ..      POP      {r0-r2,pc}
    KEY2_Handler
        0x00000116:    b507        ..      PUSH     {r0-r2,lr}
        0x00000118:    f000fe22    ..".    BL       Key2Handler ; 0xd60
        0x0000011c:    bd07        ..      POP      {r0-r2,pc}
    KEY3_Handler
        0x0000011e:    b507        ..      PUSH     {r0-r2,lr}
        0x00000120:    f000fe24    ..$.    BL       Key3Handler ; 0xd6c
        0x00000124:    bd07        ..      POP      {r0-r2,pc}
    RESIZERDone_Handler
        0x00000126:    b507        ..      PUSH     {r0-r2,lr}
        0x00000128:    f001f9c0    ....    BL       ResizerDoneHandler ; 0x14ac
        0x0000012c:    bd07        ..      POP      {r0-r2,pc}
    $d
        0x0000012e:    0000        ..      DCW    0
        0x00000130:    00001569    i...    DCD    5481
        0x00000134:    00000071    q...    DCD    113
    $t
    .text
    __aeabi_memcpy
    __aeabi_memcpy4
    __aeabi_memcpy8
        0x00000138:    ea400301    @...    ORR      r3,r0,r1
        0x0000013c:    079b        ..      LSLS     r3,r3,#30
        0x0000013e:    d003        ..      BEQ      0x148 ; __aeabi_memcpy + 16
        0x00000140:    e009        ..      B        0x156 ; __aeabi_memcpy + 30
        0x00000142:    c908        ..      LDM      r1!,{r3}
        0x00000144:    1f12        ..      SUBS     r2,r2,#4
        0x00000146:    c008        ..      STM      r0!,{r3}
        0x00000148:    2a04        .*      CMP      r2,#4
        0x0000014a:    d2fa        ..      BCS      0x142 ; __aeabi_memcpy + 10
        0x0000014c:    e003        ..      B        0x156 ; __aeabi_memcpy + 30
        0x0000014e:    f8113b01    ...;    LDRB     r3,[r1],#1
        0x00000152:    f8003b01    ...;    STRB     r3,[r0],#1
        0x00000156:    1e52        R.      SUBS     r2,r2,#1
        0x00000158:    d2f9        ..      BCS      0x14e ; __aeabi_memcpy + 22
        0x0000015a:    4770        pG      BX       lr
    .text
    __scatterload
    __scatterload_rt2
        0x0000015c:    4c06        .L      LDR      r4,[pc,#24] ; [0x178] = 0x29dc
        0x0000015e:    4d07        .M      LDR      r5,[pc,#28] ; [0x17c] = 0x29fc
        0x00000160:    e006        ..      B        0x170 ; __scatterload + 20
        0x00000162:    68e0        .h      LDR      r0,[r4,#0xc]
        0x00000164:    f0400301    @...    ORR      r3,r0,#1
        0x00000168:    e8940007    ....    LDM      r4,{r0-r2}
        0x0000016c:    4798        .G      BLX      r3
        0x0000016e:    3410        .4      ADDS     r4,r4,#0x10
        0x00000170:    42ac        .B      CMP      r4,r5
        0x00000172:    d3f6        ..      BCC      0x162 ; __scatterload + 6
        0x00000174:    f7ffff80    ....    BL       __main_after_scatterload ; 0x78
    $d
        0x00000178:    000029dc    .)..    DCD    10716
        0x0000017c:    000029fc    .)..    DCD    10748
    $t
    i.ACCConvDoneHandler
    ACCConvDoneHandler
        0x00000180:    b500        ..      PUSH     {lr}
        0x00000182:    480d        .H      LDR      r0,[pc,#52] ; [0x1b8] = 0x20000000
        0x00000184:    7800        .x      LDRB     r0,[r0,#0]
        0x00000186:    1c40        @.      ADDS     r0,r0,#1
        0x00000188:    490b        .I      LDR      r1,[pc,#44] ; [0x1b8] = 0x20000000
        0x0000018a:    7008        .p      STRB     r0,[r1,#0]
        0x0000018c:    4608        .F      MOV      r0,r1
        0x0000018e:    7800        .x      LDRB     r0,[r0,#0]
        0x00000190:    281c        .(      CMP      r0,#0x1c
        0x00000192:    da08        ..      BGE      0x1a6 ; ACCConvDoneHandler + 38
        0x00000194:    f000f81e    ....    BL       ACC_ClrCtrl ; 0x1d4
        0x00000198:    4807        .H      LDR      r0,[pc,#28] ; [0x1b8] = 0x20000000
        0x0000019a:    7800        .x      LDRB     r0,[r0,#0]
        0x0000019c:    f000f876    ..v.    BL       ACC_RegConfig ; 0x28c
        0x000001a0:    f000f81e    ....    BL       ACC_ConvEnable ; 0x1e0
        0x000001a4:    e007        ..      B        0x1b6 ; ACCConvDoneHandler + 54
        0x000001a6:    f000f815    ....    BL       ACC_ClrCtrl ; 0x1d4
        0x000001aa:    4803        .H      LDR      r0,[pc,#12] ; [0x1b8] = 0x20000000
        0x000001ac:    7800        .x      LDRB     r0,[r0,#0]
        0x000001ae:    f000f86d    ..m.    BL       ACC_RegConfig ; 0x28c
        0x000001b2:    f000f829    ..).    BL       ACC_NmsEnable ; 0x208
        0x000001b6:    bd00        ..      POP      {pc}
    $d
        0x000001b8:    20000000    ...     DCD    536870912
    $t
    i.ACCNoFaceHandler
    ACCNoFaceHandler
        0x000001bc:    2001        .       MOVS     r0,#1
        0x000001be:    4901        .I      LDR      r1,[pc,#4] ; [0x1c4] = 0x20000002
        0x000001c0:    7008        .p      STRB     r0,[r1,#0]
        0x000001c2:    4770        pG      BX       lr
    $d
        0x000001c4:    20000002    ...     DCD    536870914
    $t
    i.ACCReadResultsHandler
    ACCReadResultsHandler
        0x000001c8:    2001        .       MOVS     r0,#1
        0x000001ca:    4901        .I      LDR      r1,[pc,#4] ; [0x1d0] = 0x20000001
        0x000001cc:    7008        .p      STRB     r0,[r1,#0]
        0x000001ce:    4770        pG      BX       lr
    $d
        0x000001d0:    20000001    ...     DCD    536870913
    $t
    i.ACC_ClrCtrl
    ACC_ClrCtrl
        0x000001d4:    2000        .       MOVS     r0,#0
        0x000001d6:    4901        .I      LDR      r1,[pc,#4] ; [0x1dc] = 0x60030000
        0x000001d8:    61c8        .a      STR      r0,[r1,#0x1c]
        0x000001da:    4770        pG      BX       lr
    $d
        0x000001dc:    60030000    ...`    DCD    1610809344
    $t
    i.ACC_ConvEnable
    ACC_ConvEnable
        0x000001e0:    2003        .       MOVS     r0,#3
        0x000001e2:    4901        .I      LDR      r1,[pc,#4] ; [0x1e8] = 0x60030000
        0x000001e4:    61c8        .a      STR      r0,[r1,#0x1c]
        0x000001e6:    4770        pG      BX       lr
    $d
        0x000001e8:    60030000    ...`    DCD    1610809344
    $t
    i.ACC_GetIsvalid
    ACC_GetIsvalid
        0x000001ec:    4601        .F      MOV      r1,r0
        0x000001ee:    4a05        .J      LDR      r2,[pc,#20] ; [0x204] = 0x60030000
        0x000001f0:    6a12        .j      LDR      r2,[r2,#0x20]
        0x000001f2:    2301        .#      MOVS     r3,#1
        0x000001f4:    408b        .@      LSLS     r3,r3,r1
        0x000001f6:    401a        .@      ANDS     r2,r2,r3
        0x000001f8:    b10a        ..      CBZ      r2,0x1fe ; ACC_GetIsvalid + 18
        0x000001fa:    2001        .       MOVS     r0,#1
        0x000001fc:    e000        ..      B        0x200 ; ACC_GetIsvalid + 20
        0x000001fe:    2000        .       MOVS     r0,#0
        0x00000200:    4770        pG      BX       lr
    $d
        0x00000202:    0000        ..      DCW    0
        0x00000204:    60030000    ...`    DCD    1610809344
    $t
    i.ACC_NmsEnable
    ACC_NmsEnable
        0x00000208:    2008        .       MOVS     r0,#8
        0x0000020a:    4901        .I      LDR      r1,[pc,#4] ; [0x210] = 0x60030000
        0x0000020c:    61c8        .a      STR      r0,[r1,#0x1c]
        0x0000020e:    4770        pG      BX       lr
    $d
        0x00000210:    60030000    ...`    DCD    1610809344
    $t
    i.ACC_ReadResults
    ACC_ReadResults
        0x00000214:    b570        p.      PUSH     {r4-r6,lr}
        0x00000216:    b086        ..      SUB      sp,sp,#0x18
        0x00000218:    4605        .F      MOV      r5,r0
        0x0000021a:    460c        .F      MOV      r4,r1
        0x0000021c:    4620         F      MOV      r0,r4
        0x0000021e:    f7ffffe5    ....    BL       ACC_GetIsvalid ; 0x1ec
        0x00000222:    4606        .F      MOV      r6,r0
        0x00000224:    b32e        ..      CBZ      r6,0x272 ; ACC_ReadResults + 94
        0x00000226:    4818        .H      LDR      r0,[pc,#96] ; [0x288] = 0x60030000
        0x00000228:    6a40        @j      LDR      r0,[r0,#0x24]
        0x0000022a:    2101        .!      MOVS     r1,#1
        0x0000022c:    40a1        .@      LSLS     r1,r1,r4
        0x0000022e:    4008        .@      ANDS     r0,r0,r1
        0x00000230:    b108        ..      CBZ      r0,0x236 ; ACC_ReadResults + 34
        0x00000232:    2001        .       MOVS     r0,#1
        0x00000234:    e000        ..      B        0x238 ; ACC_ReadResults + 36
        0x00000236:    2000        .       MOVS     r0,#0
        0x00000238:    f88d0004    ....    STRB     r0,[sp,#4]
        0x0000023c:    4812        .H      LDR      r0,[pc,#72] ; [0x288] = 0x60030000
        0x0000023e:    3028        (0      ADDS     r0,r0,#0x28
        0x00000240:    f8500034    P.4.    LDR      r0,[r0,r4,LSL #3]
        0x00000244:    0c00        ..      LSRS     r0,r0,#16
        0x00000246:    9002        ..      STR      r0,[sp,#8]
        0x00000248:    480f        .H      LDR      r0,[pc,#60] ; [0x288] = 0x60030000
        0x0000024a:    3028        (0      ADDS     r0,r0,#0x28
        0x0000024c:    f8500034    P.4.    LDR      r0,[r0,r4,LSL #3]
        0x00000250:    b281        ..      UXTH     r1,r0
        0x00000252:    9103        ..      STR      r1,[sp,#0xc]
        0x00000254:    480c        .H      LDR      r0,[pc,#48] ; [0x288] = 0x60030000
        0x00000256:    3028        (0      ADDS     r0,r0,#0x28
        0x00000258:    eb0000c4    ....    ADD      r0,r0,r4,LSL #3
        0x0000025c:    6840        @h      LDR      r0,[r0,#4]
        0x0000025e:    0c01        ..      LSRS     r1,r0,#16
        0x00000260:    9104        ..      STR      r1,[sp,#0x10]
        0x00000262:    4809        .H      LDR      r0,[pc,#36] ; [0x288] = 0x60030000
        0x00000264:    3028        (0      ADDS     r0,r0,#0x28
        0x00000266:    eb0000c4    ....    ADD      r0,r0,r4,LSL #3
        0x0000026a:    6840        @h      LDR      r0,[r0,#4]
        0x0000026c:    b281        ..      UXTH     r1,r0
        0x0000026e:    9105        ..      STR      r1,[sp,#0x14]
        0x00000270:    e002        ..      B        0x278 ; ACC_ReadResults + 100
        0x00000272:    20ff        .       MOVS     r0,#0xff
        0x00000274:    f88d0004    ....    STRB     r0,[sp,#4]
        0x00000278:    2214        ."      MOVS     r2,#0x14
        0x0000027a:    a901        ..      ADD      r1,sp,#4
        0x0000027c:    4628        (F      MOV      r0,r5
        0x0000027e:    f7ffff5b    ..[.    BL       __aeabi_memcpy ; 0x138
        0x00000282:    b006        ..      ADD      sp,sp,#0x18
        0x00000284:    bd70        p.      POP      {r4-r6,pc}
    $d
        0x00000286:    0000        ..      DCW    0
        0x00000288:    60030000    ...`    DCD    1610809344
    $t
    i.ACC_RegConfig
    ACC_RegConfig
        0x0000028c:    281d        .(      CMP      r0,#0x1d
        0x0000028e:    d271        q.      BCS      0x374 ; ACC_RegConfig + 232
        0x00000290:    e8dff000    ....    TBB      [pc,r0]
    $d
        0x00000294:    3e2e1e0f    ...>    DCD    1043209743
        0x00000298:    83715f4e    N_q.    DCD    2205245262
        0x0000029c:    c6b5a494    ....    DCD    3333792916
        0x000002a0:    f5f6f8d7    ....    DCD    4126603479
        0x000002a4:    f1f2f3f4    ....    DCD    4059231220
        0x000002a8:    edeeeff0    ....    DCD    3991859184
        0x000002ac:    e9eaebec    ....    DCD    3924487148
        0x000002b0:    00e8        ..      DCW    232
    $t
        0x000002b2:    49fb        .I      LDR      r1,[pc,#1004] ; [0x6a0] = 0x2aa38f83
        0x000002b4:    4afb        .J      LDR      r2,[pc,#1004] ; [0x6a4] = 0x60030000
        0x000002b6:    6011        .`      STR      r1,[r2,#0]
        0x000002b8:    49fb        .I      LDR      r1,[pc,#1004] ; [0x6a8] = 0x420106
        0x000002ba:    6051        Q`      STR      r1,[r2,#4]
        0x000002bc:    49fb        .I      LDR      r1,[pc,#1004] ; [0x6ac] = 0x40770000
        0x000002be:    6091        .`      STR      r1,[r2,#8]
        0x000002c0:    49fb        .I      LDR      r1,[pc,#1004] ; [0x6b0] = 0x40030000
        0x000002c2:    60d1        .`      STR      r1,[r2,#0xc]
        0x000002c4:    49fb        .I      LDR      r1,[pc,#1004] ; [0x6b4] = 0x40994b40
        0x000002c6:    6111        .a      STR      r1,[r2,#0x10]
        0x000002c8:    2100        .!      MOVS     r1,#0
        0x000002ca:    6151        Qa      STR      r1,[r2,#0x14]
        0x000002cc:    6191        .a      STR      r1,[r2,#0x18]
        0x000002ce:    e29c        ..      B        0x80a ; ACC_RegConfig + 1406
        0x000002d0:    49f9        .I      LDR      r1,[pc,#996] ; [0x6b8] = 0x25e39f9f
        0x000002d2:    4af4        .J      LDR      r2,[pc,#976] ; [0x6a4] = 0x60030000
        0x000002d4:    6011        .`      STR      r1,[r2,#0]
        0x000002d6:    49f9        .I      LDR      r1,[pc,#996] ; [0x6bc] = 0x218084
        0x000002d8:    6051        Q`      STR      r1,[r2,#4]
        0x000002da:    49f6        .I      LDR      r1,[pc,#984] ; [0x6b4] = 0x40994b40
        0x000002dc:    6091        .`      STR      r1,[r2,#8]
        0x000002de:    49f8        .I      LDR      r1,[pc,#992] ; [0x6c0] = 0x40031200
        0x000002e0:    60d1        .`      STR      r1,[r2,#0xc]
        0x000002e2:    49f8        .I      LDR      r1,[pc,#992] ; [0x6c4] = 0x4087c240
        0x000002e4:    6111        .a      STR      r1,[r2,#0x10]
        0x000002e6:    2100        .!      MOVS     r1,#0
        0x000002e8:    6151        Qa      STR      r1,[r2,#0x14]
        0x000002ea:    2120         !      MOVS     r1,#0x20
        0x000002ec:    6191        .a      STR      r1,[r2,#0x18]
        0x000002ee:    e28c        ..      B        0x80a ; ACC_RegConfig + 1406
        0x000002f0:    49f5        .I      LDR      r1,[pc,#980] ; [0x6c8] = 0x25c1ffbf
        0x000002f2:    4aec        .J      LDR      r2,[pc,#944] ; [0x6a4] = 0x60030000
        0x000002f4:    6011        .`      STR      r1,[r2,#0]
        0x000002f6:    49f5        .I      LDR      r1,[pc,#980] ; [0x6cc] = 0x118043
        0x000002f8:    6051        Q`      STR      r1,[r2,#4]
        0x000002fa:    49f2        .I      LDR      r1,[pc,#968] ; [0x6c4] = 0x4087c240
        0x000002fc:    6091        .`      STR      r1,[r2,#8]
        0x000002fe:    49f4        .I      LDR      r1,[pc,#976] ; [0x6d0] = 0x40043200
        0x00000300:    60d1        .`      STR      r1,[r2,#0xc]
        0x00000302:    49ec        .I      LDR      r1,[pc,#944] ; [0x6b4] = 0x40994b40
        0x00000304:    6111        .a      STR      r1,[r2,#0x10]
        0x00000306:    2100        .!      MOVS     r1,#0
        0x00000308:    6151        Qa      STR      r1,[r2,#0x14]
        0x0000030a:    2160        `!      MOVS     r1,#0x60
        0x0000030c:    6191        .a      STR      r1,[r2,#0x18]
        0x0000030e:    e27c        |.      B        0x80a ; ACC_RegConfig + 1406
        0x00000310:    49f0        .I      LDR      r1,[pc,#960] ; [0x6d4] = 0x218c7fbf
        0x00000312:    4ae4        .J      LDR      r2,[pc,#912] ; [0x6a4] = 0x60030000
        0x00000314:    6011        .`      STR      r1,[r2,#0]
        0x00000316:    49f0        .I      LDR      r1,[pc,#960] ; [0x6d8] = 0x9c623
        0x00000318:    6051        Q`      STR      r1,[r2,#4]
        0x0000031a:    49e6        .I      LDR      r1,[pc,#920] ; [0x6b4] = 0x40994b40
        0x0000031c:    6091        .`      STR      r1,[r2,#8]
        0x0000031e:    49ef        .I      LDR      r1,[pc,#956] ; [0x6dc] = 0x40067200
        0x00000320:    60d1        .`      STR      r1,[r2,#0xc]
        0x00000322:    49e8        .I      LDR      r1,[pc,#928] ; [0x6c4] = 0x4087c240
        0x00000324:    6111        .a      STR      r1,[r2,#0x10]
        0x00000326:    49ee        .I      LDR      r1,[pc,#952] ; [0x6e0] = 0x40f70000
        0x00000328:    6151        Qa      STR      r1,[r2,#0x14]
        0x0000032a:    21a0        .!      MOVS     r1,#0xa0
        0x0000032c:    6191        .a      STR      r1,[r2,#0x18]
        0x0000032e:    e26c        l.      B        0x80a ; ACC_RegConfig + 1406
        0x00000330:    49ec        .I      LDR      r1,[pc,#944] ; [0x6e4] = 0x1847fbf
        0x00000332:    4adc        .J      LDR      r2,[pc,#880] ; [0x6a4] = 0x60030000
        0x00000334:    6011        .`      STR      r1,[r2,#0]
        0x00000336:    49e5        .I      LDR      r1,[pc,#916] ; [0x6cc] = 0x118043
        0x00000338:    3920         9      SUBS     r1,r1,#0x20
        0x0000033a:    6051        Q`      STR      r1,[r2,#4]
        0x0000033c:    49e8        .I      LDR      r1,[pc,#928] ; [0x6e0] = 0x40f70000
        0x0000033e:    6091        .`      STR      r1,[r2,#8]
        0x00000340:    49e9        .I      LDR      r1,[pc,#932] ; [0x6e8] = 0x4008b200
        0x00000342:    60d1        .`      STR      r1,[r2,#0xc]
        0x00000344:    49e9        .I      LDR      r1,[pc,#932] ; [0x6ec] = 0x40fbc900
        0x00000346:    6111        .a      STR      r1,[r2,#0x10]
        0x00000348:    2100        .!      MOVS     r1,#0
        0x0000034a:    6151        Qa      STR      r1,[r2,#0x14]
        0x0000034c:    21e0        .!      MOVS     r1,#0xe0
        0x0000034e:    6191        .a      STR      r1,[r2,#0x18]
        0x00000350:    e25b        [.      B        0x80a ; ACC_RegConfig + 1406
        0x00000352:    49e7        .I      LDR      r1,[pc,#924] ; [0x6f0] = 0x11467bf
        0x00000354:    4ad3        .J      LDR      r2,[pc,#844] ; [0x6a4] = 0x60030000
        0x00000356:    6011        .`      STR      r1,[r2,#0]
        0x00000358:    49e6        .I      LDR      r1,[pc,#920] ; [0x6f4] = 0x108023
        0x0000035a:    6051        Q`      STR      r1,[r2,#4]
        0x0000035c:    49e3        .I      LDR      r1,[pc,#908] ; [0x6ec] = 0x40fbc900
        0x0000035e:    6091        .`      STR      r1,[r2,#8]
        0x00000360:    49e5        .I      LDR      r1,[pc,#916] ; [0x6f8] = 0x400af200
        0x00000362:    60d1        .`      STR      r1,[r2,#0xc]
        0x00000364:    49e5        .I      LDR      r1,[pc,#916] ; [0x6fc] = 0x4137baa0
        0x00000366:    6111        .a      STR      r1,[r2,#0x10]
        0x00000368:    2100        .!      MOVS     r1,#0
        0x0000036a:    6151        Qa      STR      r1,[r2,#0x14]
        0x0000036c:    f44f7190    O..q    MOV      r1,#0x120
        0x00000370:    6191        .a      STR      r1,[r2,#0x18]
        0x00000372:    e24a        J.      B        0x80a ; ACC_RegConfig + 1406
        0x00000374:    e23a        :.      B        0x7ec ; ACC_RegConfig + 1376
        0x00000376:    49db        .I      LDR      r1,[pc,#876] ; [0x6e4] = 0x1847fbf
        0x00000378:    4aca        .J      LDR      r2,[pc,#808] ; [0x6a4] = 0x60030000
        0x0000037a:    6011        .`      STR      r1,[r2,#0]
        0x0000037c:    49d3        .I      LDR      r1,[pc,#844] ; [0x6cc] = 0x118043
        0x0000037e:    3920         9      SUBS     r1,r1,#0x20
        0x00000380:    6051        Q`      STR      r1,[r2,#4]
        0x00000382:    49d7        .I      LDR      r1,[pc,#860] ; [0x6e0] = 0x40f70000
        0x00000384:    6091        .`      STR      r1,[r2,#8]
        0x00000386:    49de        .I      LDR      r1,[pc,#888] ; [0x700] = 0x400b8200
        0x00000388:    60d1        .`      STR      r1,[r2,#0xc]
        0x0000038a:    49d8        .I      LDR      r1,[pc,#864] ; [0x6ec] = 0x40fbc900
        0x0000038c:    6111        .a      STR      r1,[r2,#0x10]
        0x0000038e:    2100        .!      MOVS     r1,#0
        0x00000390:    6151        Qa      STR      r1,[r2,#0x14]
        0x00000392:    f44f7198    O..q    MOV      r1,#0x130
        0x00000396:    6191        .a      STR      r1,[r2,#0x18]
        0x00000398:    e237        7.      B        0x80a ; ACC_RegConfig + 1406
        0x0000039a:    49da        .I      LDR      r1,[pc,#872] ; [0x704] = 0x11463bf
        0x0000039c:    4ac1        .J      LDR      r2,[pc,#772] ; [0x6a4] = 0x60030000
        0x0000039e:    6011        .`      STR      r1,[r2,#0]
        0x000003a0:    49d4        .I      LDR      r1,[pc,#848] ; [0x6f4] = 0x108023
        0x000003a2:    6051        Q`      STR      r1,[r2,#4]
        0x000003a4:    49d1        .I      LDR      r1,[pc,#836] ; [0x6ec] = 0x40fbc900
        0x000003a6:    6091        .`      STR      r1,[r2,#8]
        0x000003a8:    49d7        .I      LDR      r1,[pc,#860] ; [0x708] = 0x400dc200
        0x000003aa:    60d1        .`      STR      r1,[r2,#0xc]
        0x000003ac:    49d7        .I      LDR      r1,[pc,#860] ; [0x70c] = 0x41370000
        0x000003ae:    6111        .a      STR      r1,[r2,#0x10]
        0x000003b0:    2100        .!      MOVS     r1,#0
        0x000003b2:    6151        Qa      STR      r1,[r2,#0x14]
        0x000003b4:    f44f71b8    O..q    MOV      r1,#0x170
        0x000003b8:    6191        .a      STR      r1,[r2,#0x18]
        0x000003ba:    e226        &.      B        0x80a ; ACC_RegConfig + 1406
        0x000003bc:    49d4        .I      LDR      r1,[pc,#848] ; [0x710] = 0x318a7fbf
        0x000003be:    4ab9        .J      LDR      r2,[pc,#740] ; [0x6a4] = 0x60030000
        0x000003c0:    6011        .`      STR      r1,[r2,#0]
        0x000003c2:    49d4        .I      LDR      r1,[pc,#848] ; [0x714] = 0x5a613
        0x000003c4:    6051        Q`      STR      r1,[r2,#4]
        0x000003c6:    49bf        .I      LDR      r1,[pc,#764] ; [0x6c4] = 0x4087c240
        0x000003c8:    6091        .`      STR      r1,[r2,#8]
        0x000003ca:    49d3        .I      LDR      r1,[pc,#844] ; [0x718] = 0x400e0a00
        0x000003cc:    60d1        .`      STR      r1,[r2,#0xc]
        0x000003ce:    49b9        .I      LDR      r1,[pc,#740] ; [0x6b4] = 0x40994b40
        0x000003d0:    6111        .a      STR      r1,[r2,#0x10]
        0x000003d2:    49c3        .I      LDR      r1,[pc,#780] ; [0x6e0] = 0x40f70000
        0x000003d4:    6151        Qa      STR      r1,[r2,#0x14]
        0x000003d6:    49d1        .I      LDR      r1,[pc,#836] ; [0x71c] = 0x1b800178
        0x000003d8:    6191        .a      STR      r1,[r2,#0x18]
        0x000003da:    e216        ..      B        0x80a ; ACC_RegConfig + 1406
        0x000003dc:    49d0        .I      LDR      r1,[pc,#832] ; [0x720] = 0x1827fff
        0x000003de:    4ab1        .J      LDR      r2,[pc,#708] ; [0x6a4] = 0x60030000
        0x000003e0:    6011        .`      STR      r1,[r2,#0]
        0x000003e2:    49d0        .I      LDR      r1,[pc,#832] ; [0x724] = 0x98013
        0x000003e4:    6051        Q`      STR      r1,[r2,#4]
        0x000003e6:    49be        .I      LDR      r1,[pc,#760] ; [0x6e0] = 0x40f70000
        0x000003e8:    6091        .`      STR      r1,[r2,#8]
        0x000003ea:    49cf        .I      LDR      r1,[pc,#828] ; [0x728] = 0x40128a00
        0x000003ec:    60d1        .`      STR      r1,[r2,#0xc]
        0x000003ee:    49bf        .I      LDR      r1,[pc,#764] ; [0x6ec] = 0x40fbc900
        0x000003f0:    6111        .a      STR      r1,[r2,#0x10]
        0x000003f2:    2100        .!      MOVS     r1,#0
        0x000003f4:    6151        Qa      STR      r1,[r2,#0x14]
        0x000003f6:    f44f71fc    O..q    MOV      r1,#0x1f8
        0x000003fa:    6191        .a      STR      r1,[r2,#0x18]
        0x000003fc:    e205        ..      B        0x80a ; ACC_RegConfig + 1406
        0x000003fe:    49cb        .I      LDR      r1,[pc,#812] ; [0x72c] = 0x11267bf
        0x00000400:    4aa8        .J      LDR      r2,[pc,#672] ; [0x6a4] = 0x60030000
        0x00000402:    6011        .`      STR      r1,[r2,#0]
        0x00000404:    49ca        .I      LDR      r1,[pc,#808] ; [0x730] = 0x88013
        0x00000406:    6051        Q`      STR      r1,[r2,#4]
        0x00000408:    49b8        .I      LDR      r1,[pc,#736] ; [0x6ec] = 0x40fbc900
        0x0000040a:    6091        .`      STR      r1,[r2,#8]
        0x0000040c:    49c9        .I      LDR      r1,[pc,#804] ; [0x734] = 0x40170a00
        0x0000040e:    60d1        .`      STR      r1,[r2,#0xc]
        0x00000410:    49c9        .I      LDR      r1,[pc,#804] ; [0x738] = 0x4138cae0
        0x00000412:    6111        .a      STR      r1,[r2,#0x10]
        0x00000414:    2100        .!      MOVS     r1,#0
        0x00000416:    6151        Qa      STR      r1,[r2,#0x14]
        0x00000418:    f44f710e    O..q    MOV      r1,#0x238
        0x0000041c:    6191        .a      STR      r1,[r2,#0x18]
        0x0000041e:    e1f4        ..      B        0x80a ; ACC_RegConfig + 1406
        0x00000420:    49bf        .I      LDR      r1,[pc,#764] ; [0x720] = 0x1827fff
        0x00000422:    4aa0        .J      LDR      r2,[pc,#640] ; [0x6a4] = 0x60030000
        0x00000424:    6011        .`      STR      r1,[r2,#0]
        0x00000426:    49bf        .I      LDR      r1,[pc,#764] ; [0x724] = 0x98013
        0x00000428:    6051        Q`      STR      r1,[r2,#4]
        0x0000042a:    49ad        .I      LDR      r1,[pc,#692] ; [0x6e0] = 0x40f70000
        0x0000042c:    6091        .`      STR      r1,[r2,#8]
        0x0000042e:    49c3        .I      LDR      r1,[pc,#780] ; [0x73c] = 0x40179a00
        0x00000430:    60d1        .`      STR      r1,[r2,#0xc]
        0x00000432:    49ae        .I      LDR      r1,[pc,#696] ; [0x6ec] = 0x40fbc900
        0x00000434:    6111        .a      STR      r1,[r2,#0x10]
        0x00000436:    2100        .!      MOVS     r1,#0
        0x00000438:    6151        Qa      STR      r1,[r2,#0x14]
        0x0000043a:    f44f7110    O..q    MOV      r1,#0x240
        0x0000043e:    6191        .a      STR      r1,[r2,#0x18]
        0x00000440:    e1e3        ..      B        0x80a ; ACC_RegConfig + 1406
        0x00000442:    49bf        .I      LDR      r1,[pc,#764] ; [0x740] = 0x11263bf
        0x00000444:    4a97        .J      LDR      r2,[pc,#604] ; [0x6a4] = 0x60030000
        0x00000446:    6011        .`      STR      r1,[r2,#0]
        0x00000448:    49b9        .I      LDR      r1,[pc,#740] ; [0x730] = 0x88013
        0x0000044a:    6051        Q`      STR      r1,[r2,#4]
        0x0000044c:    49a7        .I      LDR      r1,[pc,#668] ; [0x6ec] = 0x40fbc900
        0x0000044e:    6091        .`      STR      r1,[r2,#8]
        0x00000450:    49bc        .I      LDR      r1,[pc,#752] ; [0x744] = 0x401c1a00
        0x00000452:    60d1        .`      STR      r1,[r2,#0xc]
        0x00000454:    49bc        .I      LDR      r1,[pc,#752] ; [0x748] = 0x41378820
        0x00000456:    6111        .a      STR      r1,[r2,#0x10]
        0x00000458:    2100        .!      MOVS     r1,#0
        0x0000045a:    6151        Qa      STR      r1,[r2,#0x14]
        0x0000045c:    f44f7122    O."q    MOV      r1,#0x288
        0x00000460:    6191        .a      STR      r1,[r2,#0x18]
        0x00000462:    e1d2        ..      B        0x80a ; ACC_RegConfig + 1406
        0x00000464:    e10f        ..      B        0x686 ; ACC_RegConfig + 1018
        0x00000466:    e0fd        ..      B        0x664 ; ACC_RegConfig + 984
        0x00000468:    e0ea        ..      B        0x640 ; ACC_RegConfig + 948
        0x0000046a:    e0d8        ..      B        0x61e ; ACC_RegConfig + 914
        0x0000046c:    e0c5        ..      B        0x5fa ; ACC_RegConfig + 878
        0x0000046e:    e0b2        ..      B        0x5d6 ; ACC_RegConfig + 842
        0x00000470:    e0a0        ..      B        0x5b4 ; ACC_RegConfig + 808
        0x00000472:    e08e        ..      B        0x592 ; ACC_RegConfig + 774
        0x00000474:    e07c        |.      B        0x570 ; ACC_RegConfig + 740
        0x00000476:    e06a        j.      B        0x54e ; ACC_RegConfig + 706
        0x00000478:    e058        X.      B        0x52c ; ACC_RegConfig + 672
        0x0000047a:    e046        F.      B        0x50a ; ACC_RegConfig + 638
        0x0000047c:    e034        4.      B        0x4e8 ; ACC_RegConfig + 604
        0x0000047e:    e022        ".      B        0x4c6 ; ACC_RegConfig + 570
        0x00000480:    e010        ..      B        0x4a4 ; ACC_RegConfig + 536
        0x00000482:    e7ff        ..      B        0x484 ; ACC_RegConfig + 504
        0x00000484:    49b1        .I      LDR      r1,[pc,#708] ; [0x74c] = 0x31897fff
        0x00000486:    4a87        .J      LDR      r2,[pc,#540] ; [0x6a4] = 0x60030000
        0x00000488:    6011        .`      STR      r1,[r2,#0]
        0x0000048a:    49b1        .I      LDR      r1,[pc,#708] ; [0x750] = 0x3960b
        0x0000048c:    6051        Q`      STR      r1,[r2,#4]
        0x0000048e:    4989        .I      LDR      r1,[pc,#548] ; [0x6b4] = 0x40994b40
        0x00000490:    6091        .`      STR      r1,[r2,#8]
        0x00000492:    49b0        .I      LDR      r1,[pc,#704] ; [0x754] = 0x401c6200
        0x00000494:    60d1        .`      STR      r1,[r2,#0xc]
        0x00000496:    498b        .I      LDR      r1,[pc,#556] ; [0x6c4] = 0x4087c240
        0x00000498:    6111        .a      STR      r1,[r2,#0x10]
        0x0000049a:    4991        .I      LDR      r1,[pc,#580] ; [0x6e0] = 0x40f70000
        0x0000049c:    6151        Qa      STR      r1,[r2,#0x14]
        0x0000049e:    49ae        .I      LDR      r1,[pc,#696] ; [0x758] = 0x2d000290
        0x000004a0:    6191        .a      STR      r1,[r2,#0x18]
        0x000004a2:    e1b2        ..      B        0x80a ; ACC_RegConfig + 1406
        0x000004a4:    49ad        .I      LDR      r1,[pc,#692] ; [0x75c] = 0x1817fff
        0x000004a6:    4a7f        .J      LDR      r2,[pc,#508] ; [0x6a4] = 0x60030000
        0x000004a8:    6011        .`      STR      r1,[r2,#0]
        0x000004aa:    49ad        .I      LDR      r1,[pc,#692] ; [0x760] = 0x5800b
        0x000004ac:    6051        Q`      STR      r1,[r2,#4]
        0x000004ae:    498c        .I      LDR      r1,[pc,#560] ; [0x6e0] = 0x40f70000
        0x000004b0:    6091        .`      STR      r1,[r2,#8]
        0x000004b2:    49ac        .I      LDR      r1,[pc,#688] ; [0x764] = 0x40256200
        0x000004b4:    60d1        .`      STR      r1,[r2,#0xc]
        0x000004b6:    498d        .I      LDR      r1,[pc,#564] ; [0x6ec] = 0x40fbc900
        0x000004b8:    6111        .a      STR      r1,[r2,#0x10]
        0x000004ba:    2100        .!      MOVS     r1,#0
        0x000004bc:    6151        Qa      STR      r1,[r2,#0x14]
        0x000004be:    f44f7144    O.Dq    MOV      r1,#0x310
        0x000004c2:    6191        .a      STR      r1,[r2,#0x18]
        0x000004c4:    e1a1        ..      B        0x80a ; ACC_RegConfig + 1406
        0x000004c6:    49a8        .I      LDR      r1,[pc,#672] ; [0x768] = 0x11167bf
        0x000004c8:    4a76        vJ      LDR      r2,[pc,#472] ; [0x6a4] = 0x60030000
        0x000004ca:    6011        .`      STR      r1,[r2,#0]
        0x000004cc:    49a7        .I      LDR      r1,[pc,#668] ; [0x76c] = 0x4800b
        0x000004ce:    6051        Q`      STR      r1,[r2,#4]
        0x000004d0:    4986        .I      LDR      r1,[pc,#536] ; [0x6ec] = 0x40fbc900
        0x000004d2:    6091        .`      STR      r1,[r2,#8]
        0x000004d4:    49a6        .I      LDR      r1,[pc,#664] ; [0x770] = 0x4029e200
        0x000004d6:    60d1        .`      STR      r1,[r2,#0xc]
        0x000004d8:    49a6        .I      LDR      r1,[pc,#664] ; [0x774] = 0x41391320
        0x000004da:    6111        .a      STR      r1,[r2,#0x10]
        0x000004dc:    2100        .!      MOVS     r1,#0
        0x000004de:    6151        Qa      STR      r1,[r2,#0x14]
        0x000004e0:    f44f7154    O.Tq    MOV      r1,#0x350
        0x000004e4:    6191        .a      STR      r1,[r2,#0x18]
        0x000004e6:    e190        ..      B        0x80a ; ACC_RegConfig + 1406
        0x000004e8:    499c        .I      LDR      r1,[pc,#624] ; [0x75c] = 0x1817fff
        0x000004ea:    4a6e        nJ      LDR      r2,[pc,#440] ; [0x6a4] = 0x60030000
        0x000004ec:    6011        .`      STR      r1,[r2,#0]
        0x000004ee:    499c        .I      LDR      r1,[pc,#624] ; [0x760] = 0x5800b
        0x000004f0:    6051        Q`      STR      r1,[r2,#4]
        0x000004f2:    497b        {I      LDR      r1,[pc,#492] ; [0x6e0] = 0x40f70000
        0x000004f4:    6091        .`      STR      r1,[r2,#8]
        0x000004f6:    49a0        .I      LDR      r1,[pc,#640] ; [0x778] = 0x402a7200
        0x000004f8:    60d1        .`      STR      r1,[r2,#0xc]
        0x000004fa:    497c        |I      LDR      r1,[pc,#496] ; [0x6ec] = 0x40fbc900
        0x000004fc:    6111        .a      STR      r1,[r2,#0x10]
        0x000004fe:    2100        .!      MOVS     r1,#0
        0x00000500:    6151        Qa      STR      r1,[r2,#0x14]
        0x00000502:    f44f7158    O.Xq    MOV      r1,#0x360
        0x00000506:    6191        .a      STR      r1,[r2,#0x18]
        0x00000508:    e17f        ..      B        0x80a ; ACC_RegConfig + 1406
        0x0000050a:    499c        .I      LDR      r1,[pc,#624] ; [0x77c] = 0x11163bf
        0x0000050c:    4a65        eJ      LDR      r2,[pc,#404] ; [0x6a4] = 0x60030000
        0x0000050e:    6011        .`      STR      r1,[r2,#0]
        0x00000510:    4996        .I      LDR      r1,[pc,#600] ; [0x76c] = 0x4800b
        0x00000512:    6051        Q`      STR      r1,[r2,#4]
        0x00000514:    4975        uI      LDR      r1,[pc,#468] ; [0x6ec] = 0x40fbc900
        0x00000516:    6091        .`      STR      r1,[r2,#8]
        0x00000518:    4999        .I      LDR      r1,[pc,#612] ; [0x780] = 0x402ef200
        0x0000051a:    60d1        .`      STR      r1,[r2,#0xc]
        0x0000051c:    4999        .I      LDR      r1,[pc,#612] ; [0x784] = 0x4137ac40
        0x0000051e:    6111        .a      STR      r1,[r2,#0x10]
        0x00000520:    2100        .!      MOVS     r1,#0
        0x00000522:    6151        Qa      STR      r1,[r2,#0x14]
        0x00000524:    f44f7168    O.hq    MOV      r1,#0x3a0
        0x00000528:    6191        .a      STR      r1,[r2,#0x18]
        0x0000052a:    e16e        n.      B        0x80a ; ACC_RegConfig + 1406
        0x0000052c:    4996        .I      LDR      r1,[pc,#600] ; [0x788] = 0x108ffff
        0x0000052e:    4a5d        ]J      LDR      r2,[pc,#372] ; [0x6a4] = 0x60030000
        0x00000530:    6011        .`      STR      r1,[r2,#0]
        0x00000532:    4996        .I      LDR      r1,[pc,#600] ; [0x78c] = 0x28e07
        0x00000534:    6051        Q`      STR      r1,[r2,#4]
        0x00000536:    4963        cI      LDR      r1,[pc,#396] ; [0x6c4] = 0x4087c240
        0x00000538:    6091        .`      STR      r1,[r2,#8]
        0x0000053a:    4995        .I      LDR      r1,[pc,#596] ; [0x790] = 0x402f3a00
        0x0000053c:    60d1        .`      STR      r1,[r2,#0xc]
        0x0000053e:    495d        ]I      LDR      r1,[pc,#372] ; [0x6b4] = 0x40994b40
        0x00000540:    6111        .a      STR      r1,[r2,#0x10]
        0x00000542:    4967        gI      LDR      r1,[pc,#412] ; [0x6e0] = 0x40f70000
        0x00000544:    6151        Qa      STR      r1,[r2,#0x14]
        0x00000546:    f44f716a    O.jq    MOV      r1,#0x3a8
        0x0000054a:    6191        .a      STR      r1,[r2,#0x18]
        0x0000054c:    e15d        ].      B        0x80a ; ACC_RegConfig + 1406
        0x0000054e:    4991        .I      LDR      r1,[pc,#580] ; [0x794] = 0x180ffbf
        0x00000550:    4a54        TJ      LDR      r2,[pc,#336] ; [0x6a4] = 0x60030000
        0x00000552:    6011        .`      STR      r1,[r2,#0]
        0x00000554:    4990        .I      LDR      r1,[pc,#576] ; [0x798] = 0x38007
        0x00000556:    6051        Q`      STR      r1,[r2,#4]
        0x00000558:    4961        aI      LDR      r1,[pc,#388] ; [0x6e0] = 0x40f70000
        0x0000055a:    6091        .`      STR      r1,[r2,#8]
        0x0000055c:    498f        .I      LDR      r1,[pc,#572] ; [0x79c] = 0x4033ba00
        0x0000055e:    60d1        .`      STR      r1,[r2,#0xc]
        0x00000560:    4962        bI      LDR      r1,[pc,#392] ; [0x6ec] = 0x40fbc900
        0x00000562:    6111        .a      STR      r1,[r2,#0x10]
        0x00000564:    2100        .!      MOVS     r1,#0
        0x00000566:    6151        Qa      STR      r1,[r2,#0x14]
        0x00000568:    f44f717a    O.zq    MOV      r1,#0x3e8
        0x0000056c:    6191        .a      STR      r1,[r2,#0x18]
        0x0000056e:    e14c        L.      B        0x80a ; ACC_RegConfig + 1406
        0x00000570:    498b        .I      LDR      r1,[pc,#556] ; [0x7a0] = 0x110e7bf
        0x00000572:    4a4c        LJ      LDR      r2,[pc,#304] ; [0x6a4] = 0x60030000
        0x00000574:    6011        .`      STR      r1,[r2,#0]
        0x00000576:    498b        .I      LDR      r1,[pc,#556] ; [0x7a4] = 0x28007
        0x00000578:    6051        Q`      STR      r1,[r2,#4]
        0x0000057a:    495c        \I      LDR      r1,[pc,#368] ; [0x6ec] = 0x40fbc900
        0x0000057c:    6091        .`      STR      r1,[r2,#8]
        0x0000057e:    498a        .I      LDR      r1,[pc,#552] ; [0x7a8] = 0x4035fa00
        0x00000580:    60d1        .`      STR      r1,[r2,#0xc]
        0x00000582:    498a        .I      LDR      r1,[pc,#552] ; [0x7ac] = 0x41392760
        0x00000584:    6111        .a      STR      r1,[r2,#0x10]
        0x00000586:    2100        .!      MOVS     r1,#0
        0x00000588:    6151        Qa      STR      r1,[r2,#0x14]
        0x0000058a:    f44f6185    O..a    MOV      r1,#0x428
        0x0000058e:    6191        .a      STR      r1,[r2,#0x18]
        0x00000590:    e13b        ;.      B        0x80a ; ACC_RegConfig + 1406
        0x00000592:    4980        .I      LDR      r1,[pc,#512] ; [0x794] = 0x180ffbf
        0x00000594:    4a43        CJ      LDR      r2,[pc,#268] ; [0x6a4] = 0x60030000
        0x00000596:    6011        .`      STR      r1,[r2,#0]
        0x00000598:    497f        .I      LDR      r1,[pc,#508] ; [0x798] = 0x38007
        0x0000059a:    6051        Q`      STR      r1,[r2,#4]
        0x0000059c:    4950        PI      LDR      r1,[pc,#320] ; [0x6e0] = 0x40f70000
        0x0000059e:    6091        .`      STR      r1,[r2,#8]
        0x000005a0:    4983        .I      LDR      r1,[pc,#524] ; [0x7b0] = 0x40368a00
        0x000005a2:    60d1        .`      STR      r1,[r2,#0xc]
        0x000005a4:    4951        QI      LDR      r1,[pc,#324] ; [0x6ec] = 0x40fbc900
        0x000005a6:    6111        .a      STR      r1,[r2,#0x10]
        0x000005a8:    2100        .!      MOVS     r1,#0
        0x000005aa:    6151        Qa      STR      r1,[r2,#0x14]
        0x000005ac:    f44f6187    O..a    MOV      r1,#0x438
        0x000005b0:    6191        .a      STR      r1,[r2,#0x18]
        0x000005b2:    e12a        *.      B        0x80a ; ACC_RegConfig + 1406
        0x000005b4:    497f        .I      LDR      r1,[pc,#508] ; [0x7b4] = 0x110e3bf
        0x000005b6:    4a3b        ;J      LDR      r2,[pc,#236] ; [0x6a4] = 0x60030000
        0x000005b8:    6011        .`      STR      r1,[r2,#0]
        0x000005ba:    497a        zI      LDR      r1,[pc,#488] ; [0x7a4] = 0x28007
        0x000005bc:    6051        Q`      STR      r1,[r2,#4]
        0x000005be:    494b        KI      LDR      r1,[pc,#300] ; [0x6ec] = 0x40fbc900
        0x000005c0:    6091        .`      STR      r1,[r2,#8]
        0x000005c2:    497d        }I      LDR      r1,[pc,#500] ; [0x7b8] = 0x4038ca00
        0x000005c4:    60d1        .`      STR      r1,[r2,#0xc]
        0x000005c6:    497d        }I      LDR      r1,[pc,#500] ; [0x7bc] = 0x4137b660
        0x000005c8:    6111        .a      STR      r1,[r2,#0x10]
        0x000005ca:    2100        .!      MOVS     r1,#0
        0x000005cc:    6151        Qa      STR      r1,[r2,#0x14]
        0x000005ce:    f44f618f    O..a    MOV      r1,#0x478
        0x000005d2:    6191        .a      STR      r1,[r2,#0x18]
        0x000005d4:    e119        ..      B        0x80a ; ACC_RegConfig + 1406
        0x000005d6:    497a        zI      LDR      r1,[pc,#488] ; [0x7c0] = 0x180bfbf
        0x000005d8:    4a32        2J      LDR      r2,[pc,#200] ; [0x6a4] = 0x60030000
        0x000005da:    6011        .`      STR      r1,[r2,#0]
        0x000005dc:    4971        qI      LDR      r1,[pc,#452] ; [0x7a4] = 0x28007
        0x000005de:    1e89        ..      SUBS     r1,r1,#2
        0x000005e0:    6051        Q`      STR      r1,[r2,#4]
        0x000005e2:    4934        4I      LDR      r1,[pc,#208] ; [0x6b4] = 0x40994b40
        0x000005e4:    6091        .`      STR      r1,[r2,#8]
        0x000005e6:    4977        wI      LDR      r1,[pc,#476] ; [0x7c4] = 0x40391200
        0x000005e8:    60d1        .`      STR      r1,[r2,#0xc]
        0x000005ea:    493d        =I      LDR      r1,[pc,#244] ; [0x6e0] = 0x40f70000
        0x000005ec:    6111        .a      STR      r1,[r2,#0x10]
        0x000005ee:    2100        .!      MOVS     r1,#0
        0x000005f0:    6151        Qa      STR      r1,[r2,#0x14]
        0x000005f2:    f44f6190    O..a    MOV      r1,#0x480
        0x000005f6:    6191        .a      STR      r1,[r2,#0x18]
        0x000005f8:    e107        ..      B        0x80a ; ACC_RegConfig + 1406
        0x000005fa:    4971        qI      LDR      r1,[pc,#452] ; [0x7c0] = 0x180bfbf
        0x000005fc:    4a29        )J      LDR      r2,[pc,#164] ; [0x6a4] = 0x60030000
        0x000005fe:    6011        .`      STR      r1,[r2,#0]
        0x00000600:    4968        hI      LDR      r1,[pc,#416] ; [0x7a4] = 0x28007
        0x00000602:    1e89        ..      SUBS     r1,r1,#2
        0x00000604:    6051        Q`      STR      r1,[r2,#4]
        0x00000606:    4936        6I      LDR      r1,[pc,#216] ; [0x6e0] = 0x40f70000
        0x00000608:    6091        .`      STR      r1,[r2,#8]
        0x0000060a:    496f        oI      LDR      r1,[pc,#444] ; [0x7c8] = 0x403b5200
        0x0000060c:    60d1        .`      STR      r1,[r2,#0xc]
        0x0000060e:    4937        7I      LDR      r1,[pc,#220] ; [0x6ec] = 0x40fbc900
        0x00000610:    6111        .a      STR      r1,[r2,#0x10]
        0x00000612:    2100        .!      MOVS     r1,#0
        0x00000614:    6151        Qa      STR      r1,[r2,#0x14]
        0x00000616:    f44f6198    O..a    MOV      r1,#0x4c0
        0x0000061a:    6191        .a      STR      r1,[r2,#0x18]
        0x0000061c:    e0f5        ..      B        0x80a ; ACC_RegConfig + 1406
        0x0000061e:    496b        kI      LDR      r1,[pc,#428] ; [0x7cc] = 0x110a7bf
        0x00000620:    4a20         J      LDR      r2,[pc,#128] ; [0x6a4] = 0x60030000
        0x00000622:    6011        .`      STR      r1,[r2,#0]
        0x00000624:    496a        jI      LDR      r1,[pc,#424] ; [0x7d0] = 0x18005
        0x00000626:    6051        Q`      STR      r1,[r2,#4]
        0x00000628:    4930        0I      LDR      r1,[pc,#192] ; [0x6ec] = 0x40fbc900
        0x0000062a:    6091        .`      STR      r1,[r2,#8]
        0x0000062c:    4969        iI      LDR      r1,[pc,#420] ; [0x7d4] = 0x403d9200
        0x0000062e:    60d1        .`      STR      r1,[r2,#0xc]
        0x00000630:    4969        iI      LDR      r1,[pc,#420] ; [0x7d8] = 0x41392da0
        0x00000632:    6111        .a      STR      r1,[r2,#0x10]
        0x00000634:    2100        .!      MOVS     r1,#0
        0x00000636:    6151        Qa      STR      r1,[r2,#0x14]
        0x00000638:    f44f61a0    O..a    MOV      r1,#0x500
        0x0000063c:    6191        .a      STR      r1,[r2,#0x18]
        0x0000063e:    e0e4        ..      B        0x80a ; ACC_RegConfig + 1406
        0x00000640:    495f        _I      LDR      r1,[pc,#380] ; [0x7c0] = 0x180bfbf
        0x00000642:    4a18        .J      LDR      r2,[pc,#96] ; [0x6a4] = 0x60030000
        0x00000644:    6011        .`      STR      r1,[r2,#0]
        0x00000646:    4957        WI      LDR      r1,[pc,#348] ; [0x7a4] = 0x28007
        0x00000648:    1e89        ..      SUBS     r1,r1,#2
        0x0000064a:    6051        Q`      STR      r1,[r2,#4]
        0x0000064c:    4924        $I      LDR      r1,[pc,#144] ; [0x6e0] = 0x40f70000
        0x0000064e:    6091        .`      STR      r1,[r2,#8]
        0x00000650:    4962        bI      LDR      r1,[pc,#392] ; [0x7dc] = 0x403e2200
        0x00000652:    60d1        .`      STR      r1,[r2,#0xc]
        0x00000654:    4925        %I      LDR      r1,[pc,#148] ; [0x6ec] = 0x40fbc900
        0x00000656:    6111        .a      STR      r1,[r2,#0x10]
        0x00000658:    2100        .!      MOVS     r1,#0
        0x0000065a:    6151        Qa      STR      r1,[r2,#0x14]
        0x0000065c:    f44f61a2    O..a    MOV      r1,#0x510
        0x00000660:    6191        .a      STR      r1,[r2,#0x18]
        0x00000662:    e0d2        ..      B        0x80a ; ACC_RegConfig + 1406
        0x00000664:    495e        ^I      LDR      r1,[pc,#376] ; [0x7e0] = 0x110a3bf
        0x00000666:    4a0f        .J      LDR      r2,[pc,#60] ; [0x6a4] = 0x60030000
        0x00000668:    6011        .`      STR      r1,[r2,#0]
        0x0000066a:    4959        YI      LDR      r1,[pc,#356] ; [0x7d0] = 0x18005
        0x0000066c:    6051        Q`      STR      r1,[r2,#4]
        0x0000066e:    491f        .I      LDR      r1,[pc,#124] ; [0x6ec] = 0x40fbc900
        0x00000670:    6091        .`      STR      r1,[r2,#8]
        0x00000672:    495c        \I      LDR      r1,[pc,#368] ; [0x7e4] = 0x40406200
        0x00000674:    60d1        .`      STR      r1,[r2,#0xc]
        0x00000676:    495c        \I      LDR      r1,[pc,#368] ; [0x7e8] = 0x4137b980
        0x00000678:    6111        .a      STR      r1,[r2,#0x10]
        0x0000067a:    2100        .!      MOVS     r1,#0
        0x0000067c:    6151        Qa      STR      r1,[r2,#0x14]
        0x0000067e:    f44f61aa    O..a    MOV      r1,#0x550
        0x00000682:    6191        .a      STR      r1,[r2,#0x18]
        0x00000684:    e0c1        ..      B        0x80a ; ACC_RegConfig + 1406
        0x00000686:    f04f4180    O..A    MOV      r1,#0x40000000
        0x0000068a:    4a06        .J      LDR      r2,[pc,#24] ; [0x6a4] = 0x60030000
        0x0000068c:    6011        .`      STR      r1,[r2,#0]
        0x0000068e:    2100        .!      MOVS     r1,#0
        0x00000690:    6051        Q`      STR      r1,[r2,#4]
        0x00000692:    6091        .`      STR      r1,[r2,#8]
        0x00000694:    60d1        .`      STR      r1,[r2,#0xc]
        0x00000696:    6111        .a      STR      r1,[r2,#0x10]
        0x00000698:    6151        Qa      STR      r1,[r2,#0x14]
        0x0000069a:    6191        .a      STR      r1,[r2,#0x18]
        0x0000069c:    e0b5        ..      B        0x80a ; ACC_RegConfig + 1406
    $d
        0x0000069e:    0000        ..      DCW    0
        0x000006a0:    2aa38f83    ...*    DCD    715362179
        0x000006a4:    60030000    ...`    DCD    1610809344
        0x000006a8:    00420106    ..B.    DCD    4325638
        0x000006ac:    40770000    ..w@    DCD    1081540608
        0x000006b0:    40030000    ...@    DCD    1073938432
        0x000006b4:    40994b40    @K.@    DCD    1083788096
        0x000006b8:    25e39f9f    ...%    DCD    635674527
        0x000006bc:    00218084    ..!.    DCD    2195588
        0x000006c0:    40031200    ...@    DCD    1073943040
        0x000006c4:    4087c240    @..@    DCD    1082638912
        0x000006c8:    25c1ffbf    ...%    DCD    633470911
        0x000006cc:    00118043    C...    DCD    1146947
        0x000006d0:    40043200    .2.@    DCD    1074016768
        0x000006d4:    218c7fbf    ...!    DCD    562855871
        0x000006d8:    0009c623    #...    DCD    640547
        0x000006dc:    40067200    .r.@    DCD    1074164224
        0x000006e0:    40f70000    ...@    DCD    1089929216
        0x000006e4:    01847fbf    ....    DCD    25460671
        0x000006e8:    4008b200    ...@    DCD    1074311680
        0x000006ec:    40fbc900    ...@    DCD    1090242816
        0x000006f0:    011467bf    .g..    DCD    18114495
        0x000006f4:    00108023    #...    DCD    1081379
        0x000006f8:    400af200    ...@    DCD    1074459136
        0x000006fc:    4137baa0    ..7A    DCD    1094171296
        0x00000700:    400b8200    ...@    DCD    1074496000
        0x00000704:    011463bf    .c..    DCD    18113471
        0x00000708:    400dc200    ...@    DCD    1074643456
        0x0000070c:    41370000    ..7A    DCD    1094123520
        0x00000710:    318a7fbf    ...1    DCD    831160255
        0x00000714:    0005a613    ....    DCD    370195
        0x00000718:    400e0a00    ...@    DCD    1074661888
        0x0000071c:    1b800178    x...    DCD    461373816
        0x00000720:    01827fff    ....    DCD    25329663
        0x00000724:    00098013    ....    DCD    622611
        0x00000728:    40128a00    ...@    DCD    1074956800
        0x0000072c:    011267bf    .g..    DCD    17983423
        0x00000730:    00088013    ....    DCD    557075
        0x00000734:    40170a00    ...@    DCD    1075251712
        0x00000738:    4138cae0    ..8A    DCD    1094240992
        0x0000073c:    40179a00    ...@    DCD    1075288576
        0x00000740:    011263bf    .c..    DCD    17982399
        0x00000744:    401c1a00    ...@    DCD    1075583488
        0x00000748:    41378820     .7A    DCD    1094158368
        0x0000074c:    31897fff    ...1    DCD    831094783
        0x00000750:    0003960b    ....    DCD    235019
        0x00000754:    401c6200    .b.@    DCD    1075601920
        0x00000758:    2d000290    ...-    DCD    754975376
        0x0000075c:    01817fff    ....    DCD    25264127
        0x00000760:    0005800b    ....    DCD    360459
        0x00000764:    40256200    .b%@    DCD    1076191744
        0x00000768:    011167bf    .g..    DCD    17917887
        0x0000076c:    0004800b    ....    DCD    294923
        0x00000770:    4029e200    ..)@    DCD    1076486656
        0x00000774:    41391320     .9A    DCD    1094259488
        0x00000778:    402a7200    .r*@    DCD    1076523520
        0x0000077c:    011163bf    .c..    DCD    17916863
        0x00000780:    402ef200    ...@    DCD    1076818432
        0x00000784:    4137ac40    @.7A    DCD    1094167616
        0x00000788:    0108ffff    ....    DCD    17367039
        0x0000078c:    00028e07    ....    DCD    167431
        0x00000790:    402f3a00    .:/@    DCD    1076836864
        0x00000794:    0180ffbf    ....    DCD    25231295
        0x00000798:    00038007    ....    DCD    229383
        0x0000079c:    4033ba00    ..3@    DCD    1077131776
        0x000007a0:    0110e7bf    ....    DCD    17885119
        0x000007a4:    00028007    ....    DCD    163847
        0x000007a8:    4035fa00    ..5@    DCD    1077279232
        0x000007ac:    41392760    `'9A    DCD    1094264672
        0x000007b0:    40368a00    ..6@    DCD    1077316096
        0x000007b4:    0110e3bf    ....    DCD    17884095
        0x000007b8:    4038ca00    ..8@    DCD    1077463552
        0x000007bc:    4137b660    `.7A    DCD    1094170208
        0x000007c0:    0180bfbf    ....    DCD    25214911
        0x000007c4:    40391200    ..9@    DCD    1077481984
        0x000007c8:    403b5200    .R;@    DCD    1077629440
        0x000007cc:    0110a7bf    ....    DCD    17868735
        0x000007d0:    00018005    ....    DCD    98309
        0x000007d4:    403d9200    ..=@    DCD    1077776896
        0x000007d8:    41392da0    .-9A    DCD    1094266272
        0x000007dc:    403e2200    .">@    DCD    1077813760
        0x000007e0:    0110a3bf    ....    DCD    17867711
        0x000007e4:    40406200    .b@@    DCD    1077961216
        0x000007e8:    4137b980    ..7A    DCD    1094171008
    $t
        0x000007ec:    4908        .I      LDR      r1,[pc,#32] ; [0x810] = 0x2aa38f83
        0x000007ee:    4a09        .J      LDR      r2,[pc,#36] ; [0x814] = 0x60030000
        0x000007f0:    6011        .`      STR      r1,[r2,#0]
        0x000007f2:    4909        .I      LDR      r1,[pc,#36] ; [0x818] = 0x420106
        0x000007f4:    6051        Q`      STR      r1,[r2,#4]
        0x000007f6:    4909        .I      LDR      r1,[pc,#36] ; [0x81c] = 0x40770000
        0x000007f8:    6091        .`      STR      r1,[r2,#8]
        0x000007fa:    4909        .I      LDR      r1,[pc,#36] ; [0x820] = 0x40030000
        0x000007fc:    60d1        .`      STR      r1,[r2,#0xc]
        0x000007fe:    4909        .I      LDR      r1,[pc,#36] ; [0x824] = 0x40994b40
        0x00000800:    6111        .a      STR      r1,[r2,#0x10]
        0x00000802:    2100        .!      MOVS     r1,#0
        0x00000804:    6151        Qa      STR      r1,[r2,#0x14]
        0x00000806:    6191        .a      STR      r1,[r2,#0x18]
        0x00000808:    bf00        ..      NOP      
        0x0000080a:    bf00        ..      NOP      
        0x0000080c:    4770        pG      BX       lr
    $d
        0x0000080e:    0000        ..      DCW    0
        0x00000810:    2aa38f83    ...*    DCD    715362179
        0x00000814:    60030000    ...`    DCD    1610809344
        0x00000818:    00420106    ..B.    DCD    4325638
        0x0000081c:    40770000    ..w@    DCD    1081540608
        0x00000820:    40030000    ...@    DCD    1073938432
        0x00000824:    40994b40    @K.@    DCD    1083788096
    $t
    i.ACC_RegInit
    ACC_RegInit
        0x00000828:    b500        ..      PUSH     {lr}
        0x0000082a:    2000        .       MOVS     r0,#0
        0x0000082c:    4904        .I      LDR      r1,[pc,#16] ; [0x840] = 0x20000000
        0x0000082e:    7008        .p      STRB     r0,[r1,#0]
        0x00000830:    f7fffcd0    ....    BL       ACC_ClrCtrl ; 0x1d4
        0x00000834:    4802        .H      LDR      r0,[pc,#8] ; [0x840] = 0x20000000
        0x00000836:    7800        .x      LDRB     r0,[r0,#0]
        0x00000838:    f7fffd28    ..(.    BL       ACC_RegConfig ; 0x28c
        0x0000083c:    bd00        ..      POP      {pc}
    $d
        0x0000083e:    0000        ..      DCW    0
        0x00000840:    20000000    ...     DCD    536870912
    $t
    i.ACC_Start
    ACC_Start
        0x00000844:    b500        ..      PUSH     {lr}
        0x00000846:    f7fffccb    ....    BL       ACC_ConvEnable ; 0x1e0
        0x0000084a:    bd00        ..      POP      {pc}
    i.BusFaultHandler
    BusFaultHandler
        0x0000084c:    4770        pG      BX       lr
    i.CAMERA_Command
    CAMERA_Command
        0x0000084e:    b570        p.      PUSH     {r4-r6,lr}
        0x00000850:    4606        .F      MOV      r6,r0
        0x00000852:    460c        .F      MOV      r4,r1
        0x00000854:    4615        .F      MOV      r5,r2
        0x00000856:    f000f9fa    ....    BL       CAMERA_Start ; 0xc4e
        0x0000085a:    2078        x       MOVS     r0,#0x78
        0x0000085c:    f000fa18    ....    BL       CAMERA_Write_Byte ; 0xc90
        0x00000860:    4630        0F      MOV      r0,r6
        0x00000862:    f000fa15    ....    BL       CAMERA_Write_Byte ; 0xc90
        0x00000866:    4620         F      MOV      r0,r4
        0x00000868:    f000fa12    ....    BL       CAMERA_Write_Byte ; 0xc90
        0x0000086c:    4628        (F      MOV      r0,r5
        0x0000086e:    f000fa0f    ....    BL       CAMERA_Write_Byte ; 0xc90
        0x00000872:    f000f9fc    ....    BL       CAMERA_Stop ; 0xc6e
        0x00000876:    bd70        p.      POP      {r4-r6,pc}
    i.CAMERA_ImageCap
    CAMERA_ImageCap
        0x00000878:    b510        ..      PUSH     {r4,lr}
        0x0000087a:    2001        .       MOVS     r0,#1
        0x0000087c:    f000fe22    ..".    BL       Set_CAMERA_DATA_STATE ; 0x14c4
        0x00000880:    2007        .       MOVS     r0,#7
        0x00000882:    f000fd8d    ....    BL       LED_LightUp ; 0x13a0
        0x00000886:    bf00        ..      NOP      
        0x00000888:    f000fdfe    ....    BL       Read_CAMERA_DATA_STATE ; 0x1488
        0x0000088c:    2800        .(      CMP      r0,#0
        0x0000088e:    d1fb        ..      BNE      0x888 ; CAMERA_ImageCap + 16
        0x00000890:    2007        .       MOVS     r0,#7
        0x00000892:    f000fd95    ....    BL       LED_ShutDown ; 0x13c0
        0x00000896:    bd10        ..      POP      {r4,pc}
    i.CAMERA_Init
    CAMERA_Init
        0x00000898:    e92d5ff0    -.._    PUSH     {r4-r12,lr}
        0x0000089c:    f000fe30    ..0.    BL       Set_CAMERA_SDA_W ; 0x1500
        0x000008a0:    f000fa24    ..$.    BL       Clr_CAMERA_PWDN ; 0xcec
        0x000008a4:    2064        d       MOVS     r0,#0x64
        0x000008a6:    f000fa3e    ..>.    BL       Delay ; 0xd26
        0x000008aa:    f000fe11    ....    BL       Set_CAMERA_RST ; 0x14d0
        0x000008ae:    2064        d       MOVS     r0,#0x64
        0x000008b0:    f000fa39    ..9.    BL       Delay ; 0xd26
        0x000008b4:    f243000a    C...    MOV      r0,#0x300a
        0x000008b8:    f000f9a9    ....    BL       CAMERA_Read_Reg ; 0xc0e
        0x000008bc:    4680        .F      MOV      r8,r0
        0x000008be:    f64f70ff    O..p    MOV      r0,#0xffff
        0x000008c2:    ea002808    ...(    AND      r8,r0,r8,LSL #8
        0x000008c6:    f243000b    C...    MOV      r0,#0x300b
        0x000008ca:    f000f9a0    ....    BL       CAMERA_Read_Reg ; 0xc0e
        0x000008ce:    ea400808    @...    ORR      r8,r0,r8
        0x000008d2:    2400        .$      MOVS     r4,#0
        0x000008d4:    e010        ..      B        0x8f8 ; CAMERA_Init + 96
        0x000008d6:    eb040344    ..D.    ADD      r3,r4,r4,LSL #1
        0x000008da:    f8dfc2b8    ....    LDR      r12,[pc,#696] ; [0xb94] = 0x1738
        0x000008de:    4463        cD      ADD      r3,r3,r12
        0x000008e0:    789a        .x      LDRB     r2,[r3,#2]
        0x000008e2:    eb040344    ..D.    ADD      r3,r4,r4,LSL #1
        0x000008e6:    4463        cD      ADD      r3,r3,r12
        0x000008e8:    7859        Yx      LDRB     r1,[r3,#1]
        0x000008ea:    eb040344    ..D.    ADD      r3,r4,r4,LSL #1
        0x000008ee:    f81c0003    ....    LDRB     r0,[r12,r3]
        0x000008f2:    f7ffffac    ....    BL       CAMERA_Command ; 0x84e
        0x000008f6:    1c64        d.      ADDS     r4,r4,#1
        0x000008f8:    f5b47f83    ....    CMP      r4,#0x106
        0x000008fc:    d9eb        ..      BLS      0x8d6 ; CAMERA_Init + 62
        0x000008fe:    2220         "      MOVS     r2,#0x20
        0x00000900:    2100        .!      MOVS     r1,#0
        0x00000902:    2030        0       MOVS     r0,#0x30
        0x00000904:    f7ffffa3    ....    BL       CAMERA_Command ; 0x84e
        0x00000908:    f44f4500    O..E    MOV      r5,#0x8000
        0x0000090c:    268f        .&      MOVS     r6,#0x8f
        0x0000090e:    2764        d'      MOVS     r7,#0x64
        0x00000910:    2400        .$      MOVS     r4,#0
        0x00000912:    e008        ..      B        0x926 ; CAMERA_Init + 142
        0x00000914:    4ba0        .K      LDR      r3,[pc,#640] ; [0xb98] = 0x1a4d
        0x00000916:    5d1a        .]      LDRB     r2,[r3,r4]
        0x00000918:    b2e9        ..      UXTB     r1,r5
        0x0000091a:    1228        (.      ASRS     r0,r5,#8
        0x0000091c:    f7ffff97    ....    BL       CAMERA_Command ; 0x84e
        0x00000920:    1c68        h.      ADDS     r0,r5,#1
        0x00000922:    b285        ..      UXTH     r5,r0
        0x00000924:    1c64        d.      ADDS     r4,r4,#1
        0x00000926:    f640705d    @.]p    MOV      r0,#0xf5d
        0x0000092a:    4284        .B      CMP      r4,r0
        0x0000092c:    d3f2        ..      BCC      0x914 ; CAMERA_Init + 124
        0x0000092e:    2200        ."      MOVS     r2,#0
        0x00000930:    2122        "!      MOVS     r1,#0x22
        0x00000932:    2030        0       MOVS     r0,#0x30
        0x00000934:    f7ffff8b    ....    BL       CAMERA_Command ; 0x84e
        0x00000938:    2200        ."      MOVS     r2,#0
        0x0000093a:    2123        #!      MOVS     r1,#0x23
        0x0000093c:    2030        0       MOVS     r0,#0x30
        0x0000093e:    f7ffff86    ....    BL       CAMERA_Command ; 0x84e
        0x00000942:    2200        ."      MOVS     r2,#0
        0x00000944:    2124        $!      MOVS     r1,#0x24
        0x00000946:    2030        0       MOVS     r0,#0x30
        0x00000948:    f7ffff81    ....    BL       CAMERA_Command ; 0x84e
        0x0000094c:    2200        ."      MOVS     r2,#0
        0x0000094e:    2125        %!      MOVS     r1,#0x25
        0x00000950:    2030        0       MOVS     r0,#0x30
        0x00000952:    f7ffff7c    ..|.    BL       CAMERA_Command ; 0x84e
        0x00000956:    2200        ."      MOVS     r2,#0
        0x00000958:    2126        &!      MOVS     r1,#0x26
        0x0000095a:    2030        0       MOVS     r0,#0x30
        0x0000095c:    f7ffff77    ..w.    BL       CAMERA_Command ; 0x84e
        0x00000960:    2200        ."      MOVS     r2,#0
        0x00000962:    2127        '!      MOVS     r1,#0x27
        0x00000964:    2030        0       MOVS     r0,#0x30
        0x00000966:    f7ffff72    ..r.    BL       CAMERA_Command ; 0x84e
        0x0000096a:    2200        ."      MOVS     r2,#0
        0x0000096c:    2128        (!      MOVS     r1,#0x28
        0x0000096e:    2030        0       MOVS     r0,#0x30
        0x00000970:    f7ffff6d    ..m.    BL       CAMERA_Command ; 0x84e
        0x00000974:    22ff        ."      MOVS     r2,#0xff
        0x00000976:    2129        )!      MOVS     r1,#0x29
        0x00000978:    2030        0       MOVS     r0,#0x30
        0x0000097a:    f7ffff68    ..h.    BL       CAMERA_Command ; 0x84e
        0x0000097e:    2200        ."      MOVS     r2,#0
        0x00000980:    4611        .F      MOV      r1,r2
        0x00000982:    2030        0       MOVS     r0,#0x30
        0x00000984:    f7ffff63    ..c.    BL       CAMERA_Command ; 0x84e
        0x00000988:    22ff        ."      MOVS     r2,#0xff
        0x0000098a:    2104        .!      MOVS     r1,#4
        0x0000098c:    2030        0       MOVS     r0,#0x30
        0x0000098e:    f7ffff5e    ..^.    BL       CAMERA_Command ; 0x84e
        0x00000992:    2200        ."      MOVS     r2,#0
        0x00000994:    4611        .F      MOV      r1,r2
        0x00000996:    4610        .F      MOV      r0,r2
        0x00000998:    f7ffff59    ..Y.    BL       CAMERA_Command ; 0x84e
        0x0000099c:    2200        ."      MOVS     r2,#0
        0x0000099e:    4611        .F      MOV      r1,r2
        0x000009a0:    4610        .F      MOV      r0,r2
        0x000009a2:    f7ffff54    ..T.    BL       CAMERA_Command ; 0x84e
        0x000009a6:    2200        ."      MOVS     r2,#0
        0x000009a8:    4611        .F      MOV      r1,r2
        0x000009aa:    4610        .F      MOV      r0,r2
        0x000009ac:    f7ffff4f    ..O.    BL       CAMERA_Command ; 0x84e
        0x000009b0:    2200        ."      MOVS     r2,#0
        0x000009b2:    4611        .F      MOV      r1,r2
        0x000009b4:    4610        .F      MOV      r0,r2
        0x000009b6:    f7ffff4a    ..J.    BL       CAMERA_Command ; 0x84e
        0x000009ba:    bf00        ..      NOP      
        0x000009bc:    f2430029    C.).    MOV      r0,#0x3029
        0x000009c0:    f000f925    ..%.    BL       CAMERA_Read_Reg ; 0xc0e
        0x000009c4:    4606        .F      MOV      r6,r0
        0x000009c6:    200a        .       MOVS     r0,#0xa
        0x000009c8:    f000f9ad    ....    BL       Delay ; 0xd26
        0x000009cc:    1e38        8.      SUBS     r0,r7,#0
        0x000009ce:    f1a70101    ....    SUB      r1,r7,#1
        0x000009d2:    b28f        ..      UXTH     r7,r1
        0x000009d4:    d100        ..      BNE      0x9d8 ; CAMERA_Init + 320
        0x000009d6:    e001        ..      B        0x9dc ; CAMERA_Init + 324
        0x000009d8:    2e70        p.      CMP      r6,#0x70
        0x000009da:    d1ef        ..      BNE      0x9bc ; CAMERA_Init + 292
        0x000009dc:    bf00        ..      NOP      
        0x000009de:    2203        ."      MOVS     r2,#3
        0x000009e0:    2112        .!      MOVS     r1,#0x12
        0x000009e2:    2032        2       MOVS     r0,#0x32
        0x000009e4:    f7ffff33    ..3.    BL       CAMERA_Command ; 0x84e
        0x000009e8:    2400        .$      MOVS     r4,#0
        0x000009ea:    e009        ..      B        0xa00 ; CAMERA_Init + 360
        0x000009ec:    4b6b        kK      LDR      r3,[pc,#428] ; [0xb9c] = 0x29aa
        0x000009ee:    5d1a        .]      LDRB     r2,[r3,r4]
        0x000009f0:    b2e1        ..      UXTB     r1,r4
        0x000009f2:    f5045350    ..PS    ADD      r3,r4,#0x3400
        0x000009f6:    f3c32007    ...     UBFX     r0,r3,#8,#8
        0x000009fa:    f7ffff28    ..(.    BL       CAMERA_Command ; 0x84e
        0x000009fe:    1c64        d.      ADDS     r4,r4,#1
        0x00000a00:    2c07        .,      CMP      r4,#7
        0x00000a02:    d3f3        ..      BCC      0x9ec ; CAMERA_Init + 340
        0x00000a04:    2213        ."      MOVS     r2,#0x13
        0x00000a06:    2112        .!      MOVS     r1,#0x12
        0x00000a08:    2032        2       MOVS     r0,#0x32
        0x00000a0a:    f7ffff20    .. .    BL       CAMERA_Command ; 0x84e
        0x00000a0e:    22a3        ."      MOVS     r2,#0xa3
        0x00000a10:    2112        .!      MOVS     r1,#0x12
        0x00000a12:    2032        2       MOVS     r0,#0x32
        0x00000a14:    f7ffff1b    ....    BL       CAMERA_Command ; 0x84e
        0x00000a18:    2203        ."      MOVS     r2,#3
        0x00000a1a:    2112        .!      MOVS     r1,#0x12
        0x00000a1c:    2032        2       MOVS     r0,#0x32
        0x00000a1e:    f7ffff16    ....    BL       CAMERA_Command ; 0x84e
        0x00000a22:    221c        ."      MOVS     r2,#0x1c
        0x00000a24:    2181        .!      MOVS     r1,#0x81
        0x00000a26:    2053        S       MOVS     r0,#0x53
        0x00000a28:    f7ffff11    ....    BL       CAMERA_Command ; 0x84e
        0x00000a2c:    225a        Z"      MOVS     r2,#0x5a
        0x00000a2e:    2182        .!      MOVS     r1,#0x82
        0x00000a30:    2053        S       MOVS     r0,#0x53
        0x00000a32:    f7ffff0c    ....    BL       CAMERA_Command ; 0x84e
        0x00000a36:    2206        ."      MOVS     r2,#6
        0x00000a38:    2183        .!      MOVS     r1,#0x83
        0x00000a3a:    2053        S       MOVS     r0,#0x53
        0x00000a3c:    f7ffff07    ....    BL       CAMERA_Command ; 0x84e
        0x00000a40:    2400        .$      MOVS     r4,#0
        0x00000a42:    e00c        ..      B        0xa5e ; CAMERA_Init + 454
        0x00000a44:    4b56        VK      LDR      r3,[pc,#344] ; [0xba0] = 0x29b1
        0x00000a46:    5d1a        .]      LDRB     r2,[r3,r4]
        0x00000a48:    2384        .#      MOVS     r3,#0x84
        0x00000a4a:    4423        #D      ADD      r3,r3,r4
        0x00000a4c:    b2d9        ..      UXTB     r1,r3
        0x00000a4e:    f2453384    E..3    MOV      r3,#0x5384
        0x00000a52:    4423        #D      ADD      r3,r3,r4
        0x00000a54:    f3c32007    ...     UBFX     r0,r3,#8,#8
        0x00000a58:    f7fffef9    ....    BL       CAMERA_Command ; 0x84e
        0x00000a5c:    1c64        d.      ADDS     r4,r4,#1
        0x00000a5e:    2c06        .,      CMP      r4,#6
        0x00000a60:    d3f0        ..      BCC      0xa44 ; CAMERA_Init + 428
        0x00000a62:    2298        ."      MOVS     r2,#0x98
        0x00000a64:    218b        .!      MOVS     r1,#0x8b
        0x00000a66:    2053        S       MOVS     r0,#0x53
        0x00000a68:    f7fffef1    ....    BL       CAMERA_Command ; 0x84e
        0x00000a6c:    2201        ."      MOVS     r2,#1
        0x00000a6e:    218a        .!      MOVS     r1,#0x8a
        0x00000a70:    2053        S       MOVS     r0,#0x53
        0x00000a72:    f7fffeec    ....    BL       CAMERA_Command ; 0x84e
        0x00000a76:    2213        ."      MOVS     r2,#0x13
        0x00000a78:    2112        .!      MOVS     r1,#0x12
        0x00000a7a:    2032        2       MOVS     r0,#0x32
        0x00000a7c:    f7fffee7    ....    BL       CAMERA_Command ; 0x84e
        0x00000a80:    22a3        ."      MOVS     r2,#0xa3
        0x00000a82:    2112        .!      MOVS     r1,#0x12
        0x00000a84:    2032        2       MOVS     r0,#0x32
        0x00000a86:    f7fffee2    ....    BL       CAMERA_Command ; 0x84e
        0x00000a8a:    f04f0900    O...    MOV      r9,#0
        0x00000a8e:    2203        ."      MOVS     r2,#3
        0x00000a90:    2112        .!      MOVS     r1,#0x12
        0x00000a92:    2032        2       MOVS     r0,#0x32
        0x00000a94:    f7fffedb    ....    BL       CAMERA_Command ; 0x84e
        0x00000a98:    ea4f1209    O...    LSL      r2,r9,#4
        0x00000a9c:    2187        .!      MOVS     r1,#0x87
        0x00000a9e:    2055        U       MOVS     r0,#0x55
        0x00000aa0:    f7fffed5    ....    BL       CAMERA_Command ; 0x84e
        0x00000aa4:    2201        ."      MOVS     r2,#1
        0x00000aa6:    2188        .!      MOVS     r1,#0x88
        0x00000aa8:    2055        U       MOVS     r0,#0x55
        0x00000aaa:    f7fffed0    ....    BL       CAMERA_Command ; 0x84e
        0x00000aae:    2213        ."      MOVS     r2,#0x13
        0x00000ab0:    2112        .!      MOVS     r1,#0x12
        0x00000ab2:    2032        2       MOVS     r0,#0x32
        0x00000ab4:    f7fffecb    ....    BL       CAMERA_Command ; 0x84e
        0x00000ab8:    22a3        ."      MOVS     r2,#0xa3
        0x00000aba:    2112        .!      MOVS     r1,#0x12
        0x00000abc:    2032        2       MOVS     r0,#0x32
        0x00000abe:    f7fffec6    ....    BL       CAMERA_Command ; 0x84e
        0x00000ac2:    46ca        .F      MOV      r10,r9
        0x00000ac4:    f04f0b20    O. .    MOV      r11,#0x20
        0x00000ac8:    2203        ."      MOVS     r2,#3
        0x00000aca:    2112        .!      MOVS     r1,#0x12
        0x00000acc:    2032        2       MOVS     r0,#0x32
        0x00000ace:    f7fffebe    ....    BL       CAMERA_Command ; 0x84e
        0x00000ad2:    4652        RF      MOV      r2,r10
        0x00000ad4:    2185        .!      MOVS     r1,#0x85
        0x00000ad6:    2055        U       MOVS     r0,#0x55
        0x00000ad8:    f7fffeb9    ....    BL       CAMERA_Command ; 0x84e
        0x00000adc:    465a        ZF      MOV      r2,r11
        0x00000ade:    2186        .!      MOVS     r1,#0x86
        0x00000ae0:    2055        U       MOVS     r0,#0x55
        0x00000ae2:    f7fffeb4    ....    BL       CAMERA_Command ; 0x84e
        0x00000ae6:    2213        ."      MOVS     r2,#0x13
        0x00000ae8:    2112        .!      MOVS     r1,#0x12
        0x00000aea:    2032        2       MOVS     r0,#0x32
        0x00000aec:    f7fffeaf    ....    BL       CAMERA_Command ; 0x84e
        0x00000af0:    22a3        ."      MOVS     r2,#0xa3
        0x00000af2:    2112        .!      MOVS     r1,#0x12
        0x00000af4:    2032        2       MOVS     r0,#0x32
        0x00000af6:    f7fffeaa    ....    BL       CAMERA_Command ; 0x84e
        0x00000afa:    2225        %"      MOVS     r2,#0x25
        0x00000afc:    2108        .!      MOVS     r1,#8
        0x00000afe:    2053        S       MOVS     r0,#0x53
        0x00000b00:    f7fffea5    ....    BL       CAMERA_Command ; 0x84e
        0x00000b04:    2208        ."      MOVS     r2,#8
        0x00000b06:    2100        .!      MOVS     r1,#0
        0x00000b08:    2053        S       MOVS     r0,#0x53
        0x00000b0a:    f7fffea0    ....    BL       CAMERA_Command ; 0x84e
        0x00000b0e:    2230        0"      MOVS     r2,#0x30
        0x00000b10:    2101        .!      MOVS     r1,#1
        0x00000b12:    2053        S       MOVS     r0,#0x53
        0x00000b14:    f7fffe9b    ....    BL       CAMERA_Command ; 0x84e
        0x00000b18:    2210        ."      MOVS     r2,#0x10
        0x00000b1a:    2102        .!      MOVS     r1,#2
        0x00000b1c:    2053        S       MOVS     r0,#0x53
        0x00000b1e:    f7fffe96    ....    BL       CAMERA_Command ; 0x84e
        0x00000b22:    2200        ."      MOVS     r2,#0
        0x00000b24:    2103        .!      MOVS     r1,#3
        0x00000b26:    2053        S       MOVS     r0,#0x53
        0x00000b28:    f7fffe91    ....    BL       CAMERA_Command ; 0x84e
        0x00000b2c:    2208        ."      MOVS     r2,#8
        0x00000b2e:    2109        .!      MOVS     r1,#9
        0x00000b30:    2053        S       MOVS     r0,#0x53
        0x00000b32:    f7fffe8c    ....    BL       CAMERA_Command ; 0x84e
        0x00000b36:    2230        0"      MOVS     r2,#0x30
        0x00000b38:    210a        .!      MOVS     r1,#0xa
        0x00000b3a:    2053        S       MOVS     r0,#0x53
        0x00000b3c:    f7fffe87    ....    BL       CAMERA_Command ; 0x84e
        0x00000b40:    2204        ."      MOVS     r2,#4
        0x00000b42:    210b        .!      MOVS     r1,#0xb
        0x00000b44:    2053        S       MOVS     r0,#0x53
        0x00000b46:    f7fffe82    ....    BL       CAMERA_Command ; 0x84e
        0x00000b4a:    2206        ."      MOVS     r2,#6
        0x00000b4c:    210c        .!      MOVS     r1,#0xc
        0x00000b4e:    2053        S       MOVS     r0,#0x53
        0x00000b50:    f7fffe7d    ..}.    BL       CAMERA_Command ; 0x84e
        0x00000b54:    2201        ."      MOVS     r2,#1
        0x00000b56:    2123        #!      MOVS     r1,#0x23
        0x00000b58:    2030        0       MOVS     r0,#0x30
        0x00000b5a:    f7fffe78    ..x.    BL       CAMERA_Command ; 0x84e
        0x00000b5e:    2204        ."      MOVS     r2,#4
        0x00000b60:    2122        "!      MOVS     r1,#0x22
        0x00000b62:    2030        0       MOVS     r0,#0x30
        0x00000b64:    f7fffe73    ..s.    BL       CAMERA_Command ; 0x84e
        0x00000b68:    f2413788    A..7    MOV      r7,#0x1388
        0x00000b6c:    bf00        ..      NOP      
        0x00000b6e:    f2430023    C.#.    MOV      r0,#0x3023
        0x00000b72:    f000f84c    ..L.    BL       CAMERA_Read_Reg ; 0xc0e
        0x00000b76:    4606        .F      MOV      r6,r0
        0x00000b78:    1e38        8.      SUBS     r0,r7,#0
        0x00000b7a:    f1a70101    ....    SUB      r1,r7,#1
        0x00000b7e:    b28f        ..      UXTH     r7,r1
        0x00000b80:    d100        ..      BNE      0xb84 ; CAMERA_Init + 748
        0x00000b82:    e004        ..      B        0xb8e ; CAMERA_Init + 758
        0x00000b84:    200a        .       MOVS     r0,#0xa
        0x00000b86:    f000f8ce    ....    BL       Delay ; 0xd26
        0x00000b8a:    2e00        ..      CMP      r6,#0
        0x00000b8c:    d1ef        ..      BNE      0xb6e ; CAMERA_Init + 726
        0x00000b8e:    bf00        ..      NOP      
        0x00000b90:    e8bd9ff0    ....    POP      {r4-r12,pc}
    $d
        0x00000b94:    00001738    8...    DCD    5944
        0x00000b98:    00001a4d    M...    DCD    6733
        0x00000b9c:    000029aa    .)..    DCD    10666
        0x00000ba0:    000029b1    .)..    DCD    10673
    $t
    i.CAMERA_NA
    CAMERA_NA
        0x00000ba4:    b510        ..      PUSH     {r4,lr}
        0x00000ba6:    2050        P       MOVS     r0,#0x50
        0x00000ba8:    f000f8bd    ....    BL       Delay ; 0xd26
        0x00000bac:    f000fc9c    ....    BL       Set_CAMERA_SDA ; 0x14e8
        0x00000bb0:    f000fc94    ....    BL       Set_CAMERA_SCL ; 0x14dc
        0x00000bb4:    2050        P       MOVS     r0,#0x50
        0x00000bb6:    f000f8b6    ....    BL       Delay ; 0xd26
        0x00000bba:    f000f89d    ....    BL       Clr_CAMERA_SCL ; 0xcf8
        0x00000bbe:    2050        P       MOVS     r0,#0x50
        0x00000bc0:    f000f8b1    ....    BL       Delay ; 0xd26
        0x00000bc4:    f000f89e    ....    BL       Clr_CAMERA_SDA ; 0xd04
        0x00000bc8:    2050        P       MOVS     r0,#0x50
        0x00000bca:    f000f8ac    ....    BL       Delay ; 0xd26
        0x00000bce:    bd10        ..      POP      {r4,pc}
    i.CAMERA_Read_Byte
    CAMERA_Read_Byte
        0x00000bd0:    b570        p.      PUSH     {r4-r6,lr}
        0x00000bd2:    2400        .$      MOVS     r4,#0
        0x00000bd4:    f000fc8e    ....    BL       Set_CAMERA_SDA_R ; 0x14f4
        0x00000bd8:    2508        .%      MOVS     r5,#8
        0x00000bda:    e012        ..      B        0xc02 ; CAMERA_Read_Byte + 50
        0x00000bdc:    2050        P       MOVS     r0,#0x50
        0x00000bde:    f000f8a2    ....    BL       Delay ; 0xd26
        0x00000be2:    f000fc7b    ..{.    BL       Set_CAMERA_SCL ; 0x14dc
        0x00000be6:    0660        `.      LSLS     r0,r4,#25
        0x00000be8:    0e04        ..      LSRS     r4,r0,#24
        0x00000bea:    f000fc53    ..S.    BL       Read_CAMERA_SDA ; 0x1494
        0x00000bee:    b108        ..      CBZ      r0,0xbf4 ; CAMERA_Read_Byte + 36
        0x00000bf0:    1c60        `.      ADDS     r0,r4,#1
        0x00000bf2:    b2c4        ..      UXTB     r4,r0
        0x00000bf4:    2050        P       MOVS     r0,#0x50
        0x00000bf6:    f000f896    ....    BL       Delay ; 0xd26
        0x00000bfa:    f000f87d    ..}.    BL       Clr_CAMERA_SCL ; 0xcf8
        0x00000bfe:    1e68        h.      SUBS     r0,r5,#1
        0x00000c00:    b2c5        ..      UXTB     r5,r0
        0x00000c02:    2d00        .-      CMP      r5,#0
        0x00000c04:    dcea        ..      BGT      0xbdc ; CAMERA_Read_Byte + 12
        0x00000c06:    f000fc7b    ..{.    BL       Set_CAMERA_SDA_W ; 0x1500
        0x00000c0a:    4620         F      MOV      r0,r4
        0x00000c0c:    bd70        p.      POP      {r4-r6,pc}
    i.CAMERA_Read_Reg
    CAMERA_Read_Reg
        0x00000c0e:    b570        p.      PUSH     {r4-r6,lr}
        0x00000c10:    4604        .F      MOV      r4,r0
        0x00000c12:    f000f81c    ....    BL       CAMERA_Start ; 0xc4e
        0x00000c16:    2078        x       MOVS     r0,#0x78
        0x00000c18:    f000f83a    ..:.    BL       CAMERA_Write_Byte ; 0xc90
        0x00000c1c:    1220         .      ASRS     r0,r4,#8
        0x00000c1e:    f000f837    ..7.    BL       CAMERA_Write_Byte ; 0xc90
        0x00000c22:    b2e0        ..      UXTB     r0,r4
        0x00000c24:    f000f834    ..4.    BL       CAMERA_Write_Byte ; 0xc90
        0x00000c28:    f000f821    ..!.    BL       CAMERA_Stop ; 0xc6e
        0x00000c2c:    2064        d       MOVS     r0,#0x64
        0x00000c2e:    f000f87a    ..z.    BL       Delay ; 0xd26
        0x00000c32:    f000f80c    ....    BL       CAMERA_Start ; 0xc4e
        0x00000c36:    2079        y       MOVS     r0,#0x79
        0x00000c38:    f000f82a    ..*.    BL       CAMERA_Write_Byte ; 0xc90
        0x00000c3c:    f7ffffc8    ....    BL       CAMERA_Read_Byte ; 0xbd0
        0x00000c40:    4605        .F      MOV      r5,r0
        0x00000c42:    f7ffffaf    ....    BL       CAMERA_NA ; 0xba4
        0x00000c46:    f000f812    ....    BL       CAMERA_Stop ; 0xc6e
        0x00000c4a:    4628        (F      MOV      r0,r5
        0x00000c4c:    bd70        p.      POP      {r4-r6,pc}
    i.CAMERA_Start
    CAMERA_Start
        0x00000c4e:    b510        ..      PUSH     {r4,lr}
        0x00000c50:    f000fc4a    ..J.    BL       Set_CAMERA_SDA ; 0x14e8
        0x00000c54:    f000fc42    ..B.    BL       Set_CAMERA_SCL ; 0x14dc
        0x00000c58:    2050        P       MOVS     r0,#0x50
        0x00000c5a:    f000f864    ..d.    BL       Delay ; 0xd26
        0x00000c5e:    f000f851    ..Q.    BL       Clr_CAMERA_SDA ; 0xd04
        0x00000c62:    2050        P       MOVS     r0,#0x50
        0x00000c64:    f000f85f    .._.    BL       Delay ; 0xd26
        0x00000c68:    f000f846    ..F.    BL       Clr_CAMERA_SCL ; 0xcf8
        0x00000c6c:    bd10        ..      POP      {r4,pc}
    i.CAMERA_Stop
    CAMERA_Stop
        0x00000c6e:    b510        ..      PUSH     {r4,lr}
        0x00000c70:    f000f848    ..H.    BL       Clr_CAMERA_SDA ; 0xd04
        0x00000c74:    2050        P       MOVS     r0,#0x50
        0x00000c76:    f000f856    ..V.    BL       Delay ; 0xd26
        0x00000c7a:    f000fc2f    ../.    BL       Set_CAMERA_SCL ; 0x14dc
        0x00000c7e:    2050        P       MOVS     r0,#0x50
        0x00000c80:    f000f851    ..Q.    BL       Delay ; 0xd26
        0x00000c84:    f000fc30    ..0.    BL       Set_CAMERA_SDA ; 0x14e8
        0x00000c88:    2050        P       MOVS     r0,#0x50
        0x00000c8a:    f000f84c    ..L.    BL       Delay ; 0xd26
        0x00000c8e:    bd10        ..      POP      {r4,pc}
    i.CAMERA_Write_Byte
    CAMERA_Write_Byte
        0x00000c90:    b570        p.      PUSH     {r4-r6,lr}
        0x00000c92:    4604        .F      MOV      r4,r0
        0x00000c94:    2500        .%      MOVS     r5,#0
        0x00000c96:    e018        ..      B        0xcca ; CAMERA_Write_Byte + 58
        0x00000c98:    f0040080    ....    AND      r0,r4,#0x80
        0x00000c9c:    b110        ..      CBZ      r0,0xca4 ; CAMERA_Write_Byte + 20
        0x00000c9e:    f000fc23    ..#.    BL       Set_CAMERA_SDA ; 0x14e8
        0x00000ca2:    e001        ..      B        0xca8 ; CAMERA_Write_Byte + 24
        0x00000ca4:    f000f82e    ....    BL       Clr_CAMERA_SDA ; 0xd04
        0x00000ca8:    0660        `.      LSLS     r0,r4,#25
        0x00000caa:    0e04        ..      LSRS     r4,r0,#24
        0x00000cac:    2014        .       MOVS     r0,#0x14
        0x00000cae:    f000f83a    ..:.    BL       Delay ; 0xd26
        0x00000cb2:    f000fc13    ....    BL       Set_CAMERA_SCL ; 0x14dc
        0x00000cb6:    2050        P       MOVS     r0,#0x50
        0x00000cb8:    f000f835    ..5.    BL       Delay ; 0xd26
        0x00000cbc:    f000f81c    ....    BL       Clr_CAMERA_SCL ; 0xcf8
        0x00000cc0:    2050        P       MOVS     r0,#0x50
        0x00000cc2:    f000f830    ..0.    BL       Delay ; 0xd26
        0x00000cc6:    1c68        h.      ADDS     r0,r5,#1
        0x00000cc8:    b2c5        ..      UXTB     r5,r0
        0x00000cca:    2d08        .-      CMP      r5,#8
        0x00000ccc:    dbe4        ..      BLT      0xc98 ; CAMERA_Write_Byte + 8
        0x00000cce:    f000fc11    ....    BL       Set_CAMERA_SDA_R ; 0x14f4
        0x00000cd2:    2050        P       MOVS     r0,#0x50
        0x00000cd4:    f000f827    ..'.    BL       Delay ; 0xd26
        0x00000cd8:    f000fc00    ....    BL       Set_CAMERA_SCL ; 0x14dc
        0x00000cdc:    2050        P       MOVS     r0,#0x50
        0x00000cde:    f000f822    ..".    BL       Delay ; 0xd26
        0x00000ce2:    f000f809    ....    BL       Clr_CAMERA_SCL ; 0xcf8
        0x00000ce6:    f000fc0b    ....    BL       Set_CAMERA_SDA_W ; 0x1500
        0x00000cea:    bd70        p.      POP      {r4-r6,pc}
    i.Clr_CAMERA_PWDN
    Clr_CAMERA_PWDN
        0x00000cec:    2000        .       MOVS     r0,#0
        0x00000cee:    4901        .I      LDR      r1,[pc,#4] ; [0xcf4] = 0x60090000
        0x00000cf0:    6048        H`      STR      r0,[r1,#4]
        0x00000cf2:    4770        pG      BX       lr
    $d
        0x00000cf4:    60090000    ...`    DCD    1611202560
    $t
    i.Clr_CAMERA_SCL
    Clr_CAMERA_SCL
        0x00000cf8:    2000        .       MOVS     r0,#0
        0x00000cfa:    4901        .I      LDR      r1,[pc,#4] ; [0xd00] = 0x60090000
        0x00000cfc:    6088        .`      STR      r0,[r1,#8]
        0x00000cfe:    4770        pG      BX       lr
    $d
        0x00000d00:    60090000    ...`    DCD    1611202560
    $t
    i.Clr_CAMERA_SDA
    Clr_CAMERA_SDA
        0x00000d04:    2000        .       MOVS     r0,#0
        0x00000d06:    4901        .I      LDR      r1,[pc,#4] ; [0xd0c] = 0x60090000
        0x00000d08:    60c8        .`      STR      r0,[r1,#0xc]
        0x00000d0a:    4770        pG      BX       lr
    $d
        0x00000d0c:    60090000    ...`    DCD    1611202560
    $t
    i.DMA
    DMA
        0x00000d10:    b510        ..      PUSH     {r4,lr}
        0x00000d12:    4c03        .L      LDR      r4,[pc,#12] ; [0xd20] = 0x50030000
        0x00000d14:    6020         `      STR      r0,[r4,#0]
        0x00000d16:    6061        a`      STR      r1,[r4,#4]
        0x00000d18:    60a2        .`      STR      r2,[r4,#8]
        0x00000d1a:    60e3        .`      STR      r3,[r4,#0xc]
        0x00000d1c:    bf30        0.      WFI      
        0x00000d1e:    bd10        ..      POP      {r4,pc}
    $d
        0x00000d20:    50030000    ...P    DCD    1342373888
    $t
    i.DebugMonHandler
    DebugMonHandler
        0x00000d24:    4770        pG      BX       lr
    i.Delay
    Delay
        0x00000d26:    b500        ..      PUSH     {lr}
        0x00000d28:    4602        .F      MOV      r2,r0
        0x00000d2a:    2000        .       MOVS     r0,#0
        0x00000d2c:    f000fbfa    ....    BL       Set_SysTick_CTRL ; 0x1524
        0x00000d30:    4610        .F      MOV      r0,r2
        0x00000d32:    f000fbfb    ....    BL       Set_SysTick_LOAD ; 0x152c
        0x00000d36:    2000        .       MOVS     r0,#0
        0x00000d38:    f000fbfc    ....    BL       Set_SysTick_VALUE ; 0x1534
        0x00000d3c:    2007        .       MOVS     r0,#7
        0x00000d3e:    f000fbf1    ....    BL       Set_SysTick_CTRL ; 0x1524
        0x00000d42:    bf30        0.      WFI      
        0x00000d44:    bd00        ..      POP      {pc}
    i.HardFaultHandler
    HardFaultHandler
        0x00000d46:    4770        pG      BX       lr
    i.Key0Handler
    Key0Handler
        0x00000d48:    2001        .       MOVS     r0,#1
        0x00000d4a:    4901        .I      LDR      r1,[pc,#4] ; [0xd50] = 0x20000006
        0x00000d4c:    7008        .p      STRB     r0,[r1,#0]
        0x00000d4e:    4770        pG      BX       lr
    $d
        0x00000d50:    20000006    ...     DCD    536870918
    $t
    i.Key1Handler
    Key1Handler
        0x00000d54:    2001        .       MOVS     r0,#1
        0x00000d56:    4901        .I      LDR      r1,[pc,#4] ; [0xd5c] = 0x20000005
        0x00000d58:    7008        .p      STRB     r0,[r1,#0]
        0x00000d5a:    4770        pG      BX       lr
    $d
        0x00000d5c:    20000005    ...     DCD    536870917
    $t
    i.Key2Handler
    Key2Handler
        0x00000d60:    2001        .       MOVS     r0,#1
        0x00000d62:    4901        .I      LDR      r1,[pc,#4] ; [0xd68] = 0x20000004
        0x00000d64:    7008        .p      STRB     r0,[r1,#0]
        0x00000d66:    4770        pG      BX       lr
    $d
        0x00000d68:    20000004    ...     DCD    536870916
    $t
    i.Key3Handler
    Key3Handler
        0x00000d6c:    2001        .       MOVS     r0,#1
        0x00000d6e:    4901        .I      LDR      r1,[pc,#4] ; [0xd74] = 0x20000003
        0x00000d70:    7008        .p      STRB     r0,[r1,#0]
        0x00000d72:    4770        pG      BX       lr
    $d
        0x00000d74:    20000003    ...     DCD    536870915
    $t
    i.Key_Init
    Key_Init
        0x00000d78:    2000        .       MOVS     r0,#0
        0x00000d7a:    4904        .I      LDR      r1,[pc,#16] ; [0xd8c] = 0x20000006
        0x00000d7c:    7008        .p      STRB     r0,[r1,#0]
        0x00000d7e:    4904        .I      LDR      r1,[pc,#16] ; [0xd90] = 0x20000005
        0x00000d80:    7008        .p      STRB     r0,[r1,#0]
        0x00000d82:    4904        .I      LDR      r1,[pc,#16] ; [0xd94] = 0x20000004
        0x00000d84:    7008        .p      STRB     r0,[r1,#0]
        0x00000d86:    4904        .I      LDR      r1,[pc,#16] ; [0xd98] = 0x20000003
        0x00000d88:    7008        .p      STRB     r0,[r1,#0]
        0x00000d8a:    4770        pG      BX       lr
    $d
        0x00000d8c:    20000006    ...     DCD    536870918
        0x00000d90:    20000005    ...     DCD    536870917
        0x00000d94:    20000004    ...     DCD    536870916
        0x00000d98:    20000003    ...     DCD    536870915
    $t
    i.LCD_DMA
    LCD_DMA
        0x00000d9c:    b570        p.      PUSH     {r4-r6,lr}
        0x00000d9e:    4606        .F      MOV      r6,r0
        0x00000da0:    460c        .F      MOV      r4,r1
        0x00000da2:    4615        .F      MOV      r5,r2
        0x00000da4:    f000fa00    ....    BL       LCD_PrepareDMA ; 0x11a8
        0x00000da8:    f0440204    D...    ORR      r2,r4,#4
        0x00000dac:    462b        +F      MOV      r3,r5
        0x00000dae:    4903        .I      LDR      r1,[pc,#12] ; [0xdbc] = 0x6009105c
        0x00000db0:    4630        0F      MOV      r0,r6
        0x00000db2:    f7ffffad    ....    BL       DMA ; 0xd10
        0x00000db6:    f000fa25    ..%.    BL       LCD_QuitDMA ; 0x1204
        0x00000dba:    bd70        p.      POP      {r4-r6,pc}
    $d
        0x00000dbc:    6009105c    \..`    DCD    1611206748
    $t
    i.LCD_Display
    LCD_Display
        0x00000dc0:    b510        ..      PUSH     {r4,lr}
        0x00000dc2:    f44f3296    O..2    MOV      r2,#0x12c00
        0x00000dc6:    2102        .!      MOVS     r1,#2
        0x00000dc8:    4801        .H      LDR      r0,[pc,#4] ; [0xdd0] = 0x60040000
        0x00000dca:    f7ffffe7    ....    BL       LCD_DMA ; 0xd9c
        0x00000dce:    bd10        ..      POP      {r4,pc}
    $d
        0x00000dd0:    60040000    ...`    DCD    1610874880
    $t
    i.LCD_Draw_FaceBox
    LCD_Draw_FaceBox
        0x00000dd4:    b5f0        ..      PUSH     {r4-r7,lr}
        0x00000dd6:    b08b        ..      SUB      sp,sp,#0x2c
        0x00000dd8:    2600        .&      MOVS     r6,#0
        0x00000dda:    2400        .$      MOVS     r4,#0
        0x00000ddc:    e007        ..      B        0xdee ; LCD_Draw_FaceBox + 26
        0x00000dde:    4620         F      MOV      r0,r4
        0x00000de0:    f7fffa04    ....    BL       ACC_GetIsvalid ; 0x1ec
        0x00000de4:    b108        ..      CBZ      r0,0xdea ; LCD_Draw_FaceBox + 22
        0x00000de6:    1c70        p.      ADDS     r0,r6,#1
        0x00000de8:    b2c6        ..      UXTB     r6,r0
        0x00000dea:    1c60        `.      ADDS     r0,r4,#1
        0x00000dec:    b2c4        ..      UXTB     r4,r0
        0x00000dee:    2c05        .,      CMP      r4,#5
        0x00000df0:    dbf5        ..      BLT      0xdde ; LCD_Draw_FaceBox + 10
        0x00000df2:    2500        .%      MOVS     r5,#0
        0x00000df4:    e032        2.      B        0xe5c ; LCD_Draw_FaceBox + 136
        0x00000df6:    4629        )F      MOV      r1,r5
        0x00000df8:    a801        ..      ADD      r0,sp,#4
        0x00000dfa:    f7fffa0b    ....    BL       ACC_ReadResults ; 0x214
        0x00000dfe:    2214        ."      MOVS     r2,#0x14
        0x00000e00:    a901        ..      ADD      r1,sp,#4
        0x00000e02:    a806        ..      ADD      r0,sp,#0x18
        0x00000e04:    f7fff998    ....    BL       __aeabi_memcpy ; 0x138
        0x00000e08:    f89d0018    ....    LDRB     r0,[sp,#0x18]
        0x00000e0c:    b980        ..      CBNZ     r0,0xe30 ; LCD_Draw_FaceBox + 92
        0x00000e0e:    f44f60fc    O..`    MOV      r0,#0x7e0
        0x00000e12:    9000        ..      STR      r0,[sp,#0]
        0x00000e14:    f8bd7028    ..(p    LDRH     r7,[sp,#0x28]
        0x00000e18:    b2bb        ..      UXTH     r3,r7
        0x00000e1a:    f8bd7024    ..$p    LDRH     r7,[sp,#0x24]
        0x00000e1e:    b2ba        ..      UXTH     r2,r7
        0x00000e20:    f8bd7020    .. p    LDRH     r7,[sp,#0x20]
        0x00000e24:    b2b9        ..      UXTH     r1,r7
        0x00000e26:    9f07        ..      LDR      r7,[sp,#0x1c]
        0x00000e28:    b2b8        ..      UXTH     r0,r7
        0x00000e2a:    f000fa5e    ..^.    BL       LCD_Thick_Window ; 0x12ea
        0x00000e2e:    e013        ..      B        0xe58 ; LCD_Draw_FaceBox + 132
        0x00000e30:    f89d0018    ....    LDRB     r0,[sp,#0x18]
        0x00000e34:    2801        .(      CMP      r0,#1
        0x00000e36:    d10f        ..      BNE      0xe58 ; LCD_Draw_FaceBox + 132
        0x00000e38:    f44f4078    O.x@    MOV      r0,#0xf800
        0x00000e3c:    9000        ..      STR      r0,[sp,#0]
        0x00000e3e:    f8bd7028    ..(p    LDRH     r7,[sp,#0x28]
        0x00000e42:    b2bb        ..      UXTH     r3,r7
        0x00000e44:    f8bd7024    ..$p    LDRH     r7,[sp,#0x24]
        0x00000e48:    b2ba        ..      UXTH     r2,r7
        0x00000e4a:    f8bd7020    .. p    LDRH     r7,[sp,#0x20]
        0x00000e4e:    b2b9        ..      UXTH     r1,r7
        0x00000e50:    9f07        ..      LDR      r7,[sp,#0x1c]
        0x00000e52:    b2b8        ..      UXTH     r0,r7
        0x00000e54:    f000fa49    ..I.    BL       LCD_Thick_Window ; 0x12ea
        0x00000e58:    1c68        h.      ADDS     r0,r5,#1
        0x00000e5a:    b2c5        ..      UXTB     r5,r0
        0x00000e5c:    42b5        .B      CMP      r5,r6
        0x00000e5e:    dbca        ..      BLT      0xdf6 ; LCD_Draw_FaceBox + 34
        0x00000e60:    b00b        ..      ADD      sp,sp,#0x2c
        0x00000e62:    bdf0        ..      POP      {r4-r7,pc}
    i.LCD_Draw_Window
    LCD_Draw_Window
        0x00000e64:    e92d47f0    -..G    PUSH     {r4-r10,lr}
        0x00000e68:    4607        .F      MOV      r7,r0
        0x00000e6a:    4688        .F      MOV      r8,r1
        0x00000e6c:    4615        .F      MOV      r5,r2
        0x00000e6e:    461e        .F      MOV      r6,r3
        0x00000e70:    f8dd9020    .. .    LDR      r9,[sp,#0x20]
        0x00000e74:    463c        <F      MOV      r4,r7
        0x00000e76:    e006        ..      B        0xe86 ; LCD_Draw_Window + 34
        0x00000e78:    464a        JF      MOV      r2,r9
        0x00000e7a:    4641        AF      MOV      r1,r8
        0x00000e7c:    4620         F      MOV      r0,r4
        0x00000e7e:    f000f82b    ..+.    BL       LCD_Fast_DrawPoint ; 0xed8
        0x00000e82:    1c60        `.      ADDS     r0,r4,#1
        0x00000e84:    b284        ..      UXTH     r4,r0
        0x00000e86:    1c68        h.      ADDS     r0,r5,#1
        0x00000e88:    4284        .B      CMP      r4,r0
        0x00000e8a:    dbf5        ..      BLT      0xe78 ; LCD_Draw_Window + 20
        0x00000e8c:    463c        <F      MOV      r4,r7
        0x00000e8e:    e006        ..      B        0xe9e ; LCD_Draw_Window + 58
        0x00000e90:    464a        JF      MOV      r2,r9
        0x00000e92:    4631        1F      MOV      r1,r6
        0x00000e94:    4620         F      MOV      r0,r4
        0x00000e96:    f000f81f    ....    BL       LCD_Fast_DrawPoint ; 0xed8
        0x00000e9a:    1c60        `.      ADDS     r0,r4,#1
        0x00000e9c:    b284        ..      UXTH     r4,r0
        0x00000e9e:    1c68        h.      ADDS     r0,r5,#1
        0x00000ea0:    4284        .B      CMP      r4,r0
        0x00000ea2:    dbf5        ..      BLT      0xe90 ; LCD_Draw_Window + 44
        0x00000ea4:    4644        DF      MOV      r4,r8
        0x00000ea6:    e006        ..      B        0xeb6 ; LCD_Draw_Window + 82
        0x00000ea8:    464a        JF      MOV      r2,r9
        0x00000eaa:    4621        !F      MOV      r1,r4
        0x00000eac:    4638        8F      MOV      r0,r7
        0x00000eae:    f000f813    ....    BL       LCD_Fast_DrawPoint ; 0xed8
        0x00000eb2:    1c60        `.      ADDS     r0,r4,#1
        0x00000eb4:    b284        ..      UXTH     r4,r0
        0x00000eb6:    1c70        p.      ADDS     r0,r6,#1
        0x00000eb8:    4284        .B      CMP      r4,r0
        0x00000eba:    dbf5        ..      BLT      0xea8 ; LCD_Draw_Window + 68
        0x00000ebc:    4644        DF      MOV      r4,r8
        0x00000ebe:    e006        ..      B        0xece ; LCD_Draw_Window + 106
        0x00000ec0:    464a        JF      MOV      r2,r9
        0x00000ec2:    4621        !F      MOV      r1,r4
        0x00000ec4:    4628        (F      MOV      r0,r5
        0x00000ec6:    f000f807    ....    BL       LCD_Fast_DrawPoint ; 0xed8
        0x00000eca:    1c60        `.      ADDS     r0,r4,#1
        0x00000ecc:    b284        ..      UXTH     r4,r0
        0x00000ece:    1c70        p.      ADDS     r0,r6,#1
        0x00000ed0:    4284        .B      CMP      r4,r0
        0x00000ed2:    dbf5        ..      BLT      0xec0 ; LCD_Draw_Window + 92
        0x00000ed4:    e8bd87f0    ....    POP      {r4-r10,pc}
    i.LCD_Fast_DrawPoint
    LCD_Fast_DrawPoint
        0x00000ed8:    b570        p.      PUSH     {r4-r6,lr}
        0x00000eda:    4604        .F      MOV      r4,r0
        0x00000edc:    460d        .F      MOV      r5,r1
        0x00000ede:    4616        .F      MOV      r6,r2
        0x00000ee0:    202a        *       MOVS     r0,#0x2a
        0x00000ee2:    f000fa43    ..C.    BL       LCD_WR_REG ; 0x136c
        0x00000ee6:    1220         .      ASRS     r0,r4,#8
        0x00000ee8:    f000fa26    ..&.    BL       LCD_WR_DATA ; 0x1338
        0x00000eec:    b2e0        ..      UXTB     r0,r4
        0x00000eee:    f000fa23    ..#.    BL       LCD_WR_DATA ; 0x1338
        0x00000ef2:    202b        +       MOVS     r0,#0x2b
        0x00000ef4:    f000fa3a    ..:.    BL       LCD_WR_REG ; 0x136c
        0x00000ef8:    1228        (.      ASRS     r0,r5,#8
        0x00000efa:    f000fa1d    ....    BL       LCD_WR_DATA ; 0x1338
        0x00000efe:    b2e8        ..      UXTB     r0,r5
        0x00000f00:    f000fa1a    ....    BL       LCD_WR_DATA ; 0x1338
        0x00000f04:    2000        .       MOVS     r0,#0
        0x00000f06:    4908        .I      LDR      r1,[pc,#32] ; [0xf28] = 0x60091000
        0x00000f08:    6048        H`      STR      r0,[r1,#4]
        0x00000f0a:    6008        .`      STR      r0,[r1,#0]
        0x00000f0c:    202c        ,       MOVS     r0,#0x2c
        0x00000f0e:    f000fa67    ..g.    BL       MakeData ; 0x13e0
        0x00000f12:    2000        .       MOVS     r0,#0
        0x00000f14:    4904        .I      LDR      r1,[pc,#16] ; [0xf28] = 0x60091000
        0x00000f16:    6088        .`      STR      r0,[r1,#8]
        0x00000f18:    2001        .       MOVS     r0,#1
        0x00000f1a:    6088        .`      STR      r0,[r1,#8]
        0x00000f1c:    6008        .`      STR      r0,[r1,#0]
        0x00000f1e:    4630        0F      MOV      r0,r6
        0x00000f20:    f000fa0a    ....    BL       LCD_WR_DATA ; 0x1338
        0x00000f24:    bd70        p.      POP      {r4-r6,pc}
    $d
        0x00000f26:    0000        ..      DCW    0
        0x00000f28:    60091000    ...`    DCD    1611206656
    $t
    i.LCD_Init
    LCD_Init
        0x00000f2c:    b570        p.      PUSH     {r4-r6,lr}
        0x00000f2e:    4604        .F      MOV      r4,r0
        0x00000f30:    2000        .       MOVS     r0,#0
        0x00000f32:    4999        .I      LDR      r1,[pc,#612] ; [0x1198] = 0x60091000
        0x00000f34:    6588        .e      STR      r0,[r1,#0x58]
        0x00000f36:    2001        .       MOVS     r0,#1
        0x00000f38:    6108        .a      STR      r0,[r1,#0x10]
        0x00000f3a:    4898        .H      LDR      r0,[pc,#608] ; [0x119c] = 0x186a0
        0x00000f3c:    f7fffef3    ....    BL       Delay ; 0xd26
        0x00000f40:    4897        .H      LDR      r0,[pc,#604] ; [0x11a0] = 0x7a120
        0x00000f42:    f7fffef0    ....    BL       Delay ; 0xd26
        0x00000f46:    2000        .       MOVS     r0,#0
        0x00000f48:    f000fa10    ....    BL       LCD_WR_REG ; 0x136c
        0x00000f4c:    2001        .       MOVS     r0,#1
        0x00000f4e:    f000f9f3    ....    BL       LCD_WR_DATA ; 0x1338
        0x00000f52:    4893        .H      LDR      r0,[pc,#588] ; [0x11a0] = 0x7a120
        0x00000f54:    f7fffee7    ....    BL       Delay ; 0xd26
        0x00000f58:    2000        .       MOVS     r0,#0
        0x00000f5a:    f000f971    ..q.    BL       LCD_ReadReg ; 0x1240
        0x00000f5e:    4605        .F      MOV      r5,r0
        0x00000f60:    20cf        .       MOVS     r0,#0xcf
        0x00000f62:    f000fa03    ....    BL       LCD_WR_REG ; 0x136c
        0x00000f66:    2000        .       MOVS     r0,#0
        0x00000f68:    f000f9e6    ....    BL       LCD_WR_DATA ; 0x1338
        0x00000f6c:    20c1        .       MOVS     r0,#0xc1
        0x00000f6e:    f000f9e3    ....    BL       LCD_WR_DATA ; 0x1338
        0x00000f72:    2030        0       MOVS     r0,#0x30
        0x00000f74:    f000f9e0    ....    BL       LCD_WR_DATA ; 0x1338
        0x00000f78:    20ed        .       MOVS     r0,#0xed
        0x00000f7a:    f000f9f7    ....    BL       LCD_WR_REG ; 0x136c
        0x00000f7e:    2064        d       MOVS     r0,#0x64
        0x00000f80:    f000f9da    ....    BL       LCD_WR_DATA ; 0x1338
        0x00000f84:    2003        .       MOVS     r0,#3
        0x00000f86:    f000f9d7    ....    BL       LCD_WR_DATA ; 0x1338
        0x00000f8a:    2012        .       MOVS     r0,#0x12
        0x00000f8c:    f000f9d4    ....    BL       LCD_WR_DATA ; 0x1338
        0x00000f90:    2081        .       MOVS     r0,#0x81
        0x00000f92:    f000f9d1    ....    BL       LCD_WR_DATA ; 0x1338
        0x00000f96:    20e8        .       MOVS     r0,#0xe8
        0x00000f98:    f000f9e8    ....    BL       LCD_WR_REG ; 0x136c
        0x00000f9c:    2085        .       MOVS     r0,#0x85
        0x00000f9e:    f000f9cb    ....    BL       LCD_WR_DATA ; 0x1338
        0x00000fa2:    2010        .       MOVS     r0,#0x10
        0x00000fa4:    f000f9c8    ....    BL       LCD_WR_DATA ; 0x1338
        0x00000fa8:    207a        z       MOVS     r0,#0x7a
        0x00000faa:    f000f9c5    ....    BL       LCD_WR_DATA ; 0x1338
        0x00000fae:    20cb        .       MOVS     r0,#0xcb
        0x00000fb0:    f000f9dc    ....    BL       LCD_WR_REG ; 0x136c
        0x00000fb4:    2039        9       MOVS     r0,#0x39
        0x00000fb6:    f000f9bf    ....    BL       LCD_WR_DATA ; 0x1338
        0x00000fba:    202c        ,       MOVS     r0,#0x2c
        0x00000fbc:    f000f9bc    ....    BL       LCD_WR_DATA ; 0x1338
        0x00000fc0:    2000        .       MOVS     r0,#0
        0x00000fc2:    f000f9b9    ....    BL       LCD_WR_DATA ; 0x1338
        0x00000fc6:    2034        4       MOVS     r0,#0x34
        0x00000fc8:    f000f9b6    ....    BL       LCD_WR_DATA ; 0x1338
        0x00000fcc:    2002        .       MOVS     r0,#2
        0x00000fce:    f000f9b3    ....    BL       LCD_WR_DATA ; 0x1338
        0x00000fd2:    20f7        .       MOVS     r0,#0xf7
        0x00000fd4:    f000f9ca    ....    BL       LCD_WR_REG ; 0x136c
        0x00000fd8:    2020                MOVS     r0,#0x20
        0x00000fda:    f000f9ad    ....    BL       LCD_WR_DATA ; 0x1338
        0x00000fde:    20ea        .       MOVS     r0,#0xea
        0x00000fe0:    f000f9c4    ....    BL       LCD_WR_REG ; 0x136c
        0x00000fe4:    2000        .       MOVS     r0,#0
        0x00000fe6:    f000f9a7    ....    BL       LCD_WR_DATA ; 0x1338
        0x00000fea:    2000        .       MOVS     r0,#0
        0x00000fec:    f000f9a4    ....    BL       LCD_WR_DATA ; 0x1338
        0x00000ff0:    20c0        .       MOVS     r0,#0xc0
        0x00000ff2:    f000f9bb    ....    BL       LCD_WR_REG ; 0x136c
        0x00000ff6:    201b        .       MOVS     r0,#0x1b
        0x00000ff8:    f000f99e    ....    BL       LCD_WR_DATA ; 0x1338
        0x00000ffc:    20c1        .       MOVS     r0,#0xc1
        0x00000ffe:    f000f9b5    ....    BL       LCD_WR_REG ; 0x136c
        0x00001002:    2001        .       MOVS     r0,#1
        0x00001004:    f000f998    ....    BL       LCD_WR_DATA ; 0x1338
        0x00001008:    20c5        .       MOVS     r0,#0xc5
        0x0000100a:    f000f9af    ....    BL       LCD_WR_REG ; 0x136c
        0x0000100e:    2030        0       MOVS     r0,#0x30
        0x00001010:    f000f992    ....    BL       LCD_WR_DATA ; 0x1338
        0x00001014:    2030        0       MOVS     r0,#0x30
        0x00001016:    f000f98f    ....    BL       LCD_WR_DATA ; 0x1338
        0x0000101a:    20c7        .       MOVS     r0,#0xc7
        0x0000101c:    f000f9a6    ....    BL       LCD_WR_REG ; 0x136c
        0x00001020:    20b7        .       MOVS     r0,#0xb7
        0x00001022:    f000f989    ....    BL       LCD_WR_DATA ; 0x1338
        0x00001026:    2036        6       MOVS     r0,#0x36
        0x00001028:    f000f9a0    ....    BL       LCD_WR_REG ; 0x136c
        0x0000102c:    2048        H       MOVS     r0,#0x48
        0x0000102e:    f000f983    ....    BL       LCD_WR_DATA ; 0x1338
        0x00001032:    203a        :       MOVS     r0,#0x3a
        0x00001034:    f000f99a    ....    BL       LCD_WR_REG ; 0x136c
        0x00001038:    2055        U       MOVS     r0,#0x55
        0x0000103a:    f000f97d    ..}.    BL       LCD_WR_DATA ; 0x1338
        0x0000103e:    20b1        .       MOVS     r0,#0xb1
        0x00001040:    f000f994    ....    BL       LCD_WR_REG ; 0x136c
        0x00001044:    2000        .       MOVS     r0,#0
        0x00001046:    f000f977    ..w.    BL       LCD_WR_DATA ; 0x1338
        0x0000104a:    201a        .       MOVS     r0,#0x1a
        0x0000104c:    f000f974    ..t.    BL       LCD_WR_DATA ; 0x1338
        0x00001050:    20b6        .       MOVS     r0,#0xb6
        0x00001052:    f000f98b    ....    BL       LCD_WR_REG ; 0x136c
        0x00001056:    200a        .       MOVS     r0,#0xa
        0x00001058:    f000f96e    ..n.    BL       LCD_WR_DATA ; 0x1338
        0x0000105c:    20a2        .       MOVS     r0,#0xa2
        0x0000105e:    f000f96b    ..k.    BL       LCD_WR_DATA ; 0x1338
        0x00001062:    20f2        .       MOVS     r0,#0xf2
        0x00001064:    f000f982    ....    BL       LCD_WR_REG ; 0x136c
        0x00001068:    2000        .       MOVS     r0,#0
        0x0000106a:    f000f965    ..e.    BL       LCD_WR_DATA ; 0x1338
        0x0000106e:    2026        &       MOVS     r0,#0x26
        0x00001070:    f000f97c    ..|.    BL       LCD_WR_REG ; 0x136c
        0x00001074:    2001        .       MOVS     r0,#1
        0x00001076:    f000f95f    .._.    BL       LCD_WR_DATA ; 0x1338
        0x0000107a:    20e0        .       MOVS     r0,#0xe0
        0x0000107c:    f000f976    ..v.    BL       LCD_WR_REG ; 0x136c
        0x00001080:    200f        .       MOVS     r0,#0xf
        0x00001082:    f000f959    ..Y.    BL       LCD_WR_DATA ; 0x1338
        0x00001086:    202a        *       MOVS     r0,#0x2a
        0x00001088:    f000f956    ..V.    BL       LCD_WR_DATA ; 0x1338
        0x0000108c:    2028        (       MOVS     r0,#0x28
        0x0000108e:    f000f953    ..S.    BL       LCD_WR_DATA ; 0x1338
        0x00001092:    2008        .       MOVS     r0,#8
        0x00001094:    f000f950    ..P.    BL       LCD_WR_DATA ; 0x1338
        0x00001098:    200e        .       MOVS     r0,#0xe
        0x0000109a:    f000f94d    ..M.    BL       LCD_WR_DATA ; 0x1338
        0x0000109e:    2008        .       MOVS     r0,#8
        0x000010a0:    f000f94a    ..J.    BL       LCD_WR_DATA ; 0x1338
        0x000010a4:    2054        T       MOVS     r0,#0x54
        0x000010a6:    f000f947    ..G.    BL       LCD_WR_DATA ; 0x1338
        0x000010aa:    20a9        .       MOVS     r0,#0xa9
        0x000010ac:    f000f944    ..D.    BL       LCD_WR_DATA ; 0x1338
        0x000010b0:    2043        C       MOVS     r0,#0x43
        0x000010b2:    f000f941    ..A.    BL       LCD_WR_DATA ; 0x1338
        0x000010b6:    200a        .       MOVS     r0,#0xa
        0x000010b8:    f000f93e    ..>.    BL       LCD_WR_DATA ; 0x1338
        0x000010bc:    200f        .       MOVS     r0,#0xf
        0x000010be:    f000f93b    ..;.    BL       LCD_WR_DATA ; 0x1338
        0x000010c2:    2000        .       MOVS     r0,#0
        0x000010c4:    f000f938    ..8.    BL       LCD_WR_DATA ; 0x1338
        0x000010c8:    2000        .       MOVS     r0,#0
        0x000010ca:    f000f935    ..5.    BL       LCD_WR_DATA ; 0x1338
        0x000010ce:    2000        .       MOVS     r0,#0
        0x000010d0:    f000f932    ..2.    BL       LCD_WR_DATA ; 0x1338
        0x000010d4:    2000        .       MOVS     r0,#0
        0x000010d6:    f000f92f    ../.    BL       LCD_WR_DATA ; 0x1338
        0x000010da:    20e1        .       MOVS     r0,#0xe1
        0x000010dc:    f000f946    ..F.    BL       LCD_WR_REG ; 0x136c
        0x000010e0:    2000        .       MOVS     r0,#0
        0x000010e2:    f000f929    ..).    BL       LCD_WR_DATA ; 0x1338
        0x000010e6:    2015        .       MOVS     r0,#0x15
        0x000010e8:    f000f926    ..&.    BL       LCD_WR_DATA ; 0x1338
        0x000010ec:    2017        .       MOVS     r0,#0x17
        0x000010ee:    f000f923    ..#.    BL       LCD_WR_DATA ; 0x1338
        0x000010f2:    2007        .       MOVS     r0,#7
        0x000010f4:    f000f920    .. .    BL       LCD_WR_DATA ; 0x1338
        0x000010f8:    2011        .       MOVS     r0,#0x11
        0x000010fa:    f000f91d    ....    BL       LCD_WR_DATA ; 0x1338
        0x000010fe:    2006        .       MOVS     r0,#6
        0x00001100:    f000f91a    ....    BL       LCD_WR_DATA ; 0x1338
        0x00001104:    202b        +       MOVS     r0,#0x2b
        0x00001106:    f000f917    ....    BL       LCD_WR_DATA ; 0x1338
        0x0000110a:    2056        V       MOVS     r0,#0x56
        0x0000110c:    f000f914    ....    BL       LCD_WR_DATA ; 0x1338
        0x00001110:    203c        <       MOVS     r0,#0x3c
        0x00001112:    f000f911    ....    BL       LCD_WR_DATA ; 0x1338
        0x00001116:    2005        .       MOVS     r0,#5
        0x00001118:    f000f90e    ....    BL       LCD_WR_DATA ; 0x1338
        0x0000111c:    2010        .       MOVS     r0,#0x10
        0x0000111e:    f000f90b    ....    BL       LCD_WR_DATA ; 0x1338
        0x00001122:    200f        .       MOVS     r0,#0xf
        0x00001124:    f000f908    ....    BL       LCD_WR_DATA ; 0x1338
        0x00001128:    203f        ?       MOVS     r0,#0x3f
        0x0000112a:    f000f905    ....    BL       LCD_WR_DATA ; 0x1338
        0x0000112e:    203f        ?       MOVS     r0,#0x3f
        0x00001130:    f000f902    ....    BL       LCD_WR_DATA ; 0x1338
        0x00001134:    200f        .       MOVS     r0,#0xf
        0x00001136:    f000f8ff    ....    BL       LCD_WR_DATA ; 0x1338
        0x0000113a:    202b        +       MOVS     r0,#0x2b
        0x0000113c:    f000f916    ....    BL       LCD_WR_REG ; 0x136c
        0x00001140:    2000        .       MOVS     r0,#0
        0x00001142:    f000f8f9    ....    BL       LCD_WR_DATA ; 0x1338
        0x00001146:    2000        .       MOVS     r0,#0
        0x00001148:    f000f8f6    ....    BL       LCD_WR_DATA ; 0x1338
        0x0000114c:    2001        .       MOVS     r0,#1
        0x0000114e:    f000f8f3    ....    BL       LCD_WR_DATA ; 0x1338
        0x00001152:    203f        ?       MOVS     r0,#0x3f
        0x00001154:    f000f8f0    ....    BL       LCD_WR_DATA ; 0x1338
        0x00001158:    202a        *       MOVS     r0,#0x2a
        0x0000115a:    f000f907    ....    BL       LCD_WR_REG ; 0x136c
        0x0000115e:    2000        .       MOVS     r0,#0
        0x00001160:    f000f8ea    ....    BL       LCD_WR_DATA ; 0x1338
        0x00001164:    2000        .       MOVS     r0,#0
        0x00001166:    f000f8e7    ....    BL       LCD_WR_DATA ; 0x1338
        0x0000116a:    2000        .       MOVS     r0,#0
        0x0000116c:    f000f8e4    ....    BL       LCD_WR_DATA ; 0x1338
        0x00001170:    20ef        .       MOVS     r0,#0xef
        0x00001172:    f000f8e1    ....    BL       LCD_WR_DATA ; 0x1338
        0x00001176:    2011        .       MOVS     r0,#0x11
        0x00001178:    f000f8f8    ....    BL       LCD_WR_REG ; 0x136c
        0x0000117c:    4809        .H      LDR      r0,[pc,#36] ; [0x11a4] = 0x5b8d80
        0x0000117e:    f7fffdd2    ....    BL       Delay ; 0xd26
        0x00001182:    2029        )       MOVS     r0,#0x29
        0x00001184:    f000f8f2    ....    BL       LCD_WR_REG ; 0x136c
        0x00001188:    4620         F      MOV      r0,r4
        0x0000118a:    f000f864    ..d.    BL       LCD_Scan_Dir ; 0x1256
        0x0000118e:    2001        .       MOVS     r0,#1
        0x00001190:    4901        .I      LDR      r1,[pc,#4] ; [0x1198] = 0x60091000
        0x00001192:    6148        Ha      STR      r0,[r1,#0x14]
        0x00001194:    bd70        p.      POP      {r4-r6,pc}
    $d
        0x00001196:    0000        ..      DCW    0
        0x00001198:    60091000    ...`    DCD    1611206656
        0x0000119c:    000186a0    ....    DCD    100000
        0x000011a0:    0007a120     ...    DCD    500000
        0x000011a4:    005b8d80    ..[.    DCD    6000000
    $t
    i.LCD_PrepareDMA
    LCD_PrepareDMA
        0x000011a8:    b510        ..      PUSH     {r4,lr}
        0x000011aa:    202a        *       MOVS     r0,#0x2a
        0x000011ac:    f000f8de    ....    BL       LCD_WR_REG ; 0x136c
        0x000011b0:    2000        .       MOVS     r0,#0
        0x000011b2:    f000f8c1    ....    BL       LCD_WR_DATA ; 0x1338
        0x000011b6:    2000        .       MOVS     r0,#0
        0x000011b8:    f000f8be    ....    BL       LCD_WR_DATA ; 0x1338
        0x000011bc:    2001        .       MOVS     r0,#1
        0x000011be:    f000f8bb    ....    BL       LCD_WR_DATA ; 0x1338
        0x000011c2:    203f        ?       MOVS     r0,#0x3f
        0x000011c4:    f000f8b8    ....    BL       LCD_WR_DATA ; 0x1338
        0x000011c8:    202b        +       MOVS     r0,#0x2b
        0x000011ca:    f000f8cf    ....    BL       LCD_WR_REG ; 0x136c
        0x000011ce:    2000        .       MOVS     r0,#0
        0x000011d0:    f000f8b2    ....    BL       LCD_WR_DATA ; 0x1338
        0x000011d4:    2000        .       MOVS     r0,#0
        0x000011d6:    f000f8af    ....    BL       LCD_WR_DATA ; 0x1338
        0x000011da:    2000        .       MOVS     r0,#0
        0x000011dc:    f000f8ac    ....    BL       LCD_WR_DATA ; 0x1338
        0x000011e0:    20ef        .       MOVS     r0,#0xef
        0x000011e2:    f000f8a9    ....    BL       LCD_WR_DATA ; 0x1338
        0x000011e6:    202c        ,       MOVS     r0,#0x2c
        0x000011e8:    f000f8c0    ....    BL       LCD_WR_REG ; 0x136c
        0x000011ec:    2001        .       MOVS     r0,#1
        0x000011ee:    4904        .I      LDR      r1,[pc,#16] ; [0x1200] = 0x60091000
        0x000011f0:    6048        H`      STR      r0,[r1,#4]
        0x000011f2:    2000        .       MOVS     r0,#0
        0x000011f4:    6008        .`      STR      r0,[r1,#0]
        0x000011f6:    6088        .`      STR      r0,[r1,#8]
        0x000011f8:    2001        .       MOVS     r0,#1
        0x000011fa:    6588        .e      STR      r0,[r1,#0x58]
        0x000011fc:    bd10        ..      POP      {r4,pc}
    $d
        0x000011fe:    0000        ..      DCW    0
        0x00001200:    60091000    ...`    DCD    1611206656
    $t
    i.LCD_QuitDMA
    LCD_QuitDMA
        0x00001204:    2000        .       MOVS     r0,#0
        0x00001206:    4902        .I      LDR      r1,[pc,#8] ; [0x1210] = 0x60091000
        0x00001208:    6588        .e      STR      r0,[r1,#0x58]
        0x0000120a:    2001        .       MOVS     r0,#1
        0x0000120c:    6008        .`      STR      r0,[r1,#0]
        0x0000120e:    4770        pG      BX       lr
    $d
        0x00001210:    60091000    ...`    DCD    1611206656
    $t
    i.LCD_RD_DATA
    LCD_RD_DATA
        0x00001214:    b510        ..      PUSH     {r4,lr}
        0x00001216:    2001        .       MOVS     r0,#1
        0x00001218:    4908        .I      LDR      r1,[pc,#32] ; [0x123c] = 0x60091000
        0x0000121a:    6048        H`      STR      r0,[r1,#4]
        0x0000121c:    2000        .       MOVS     r0,#0
        0x0000121e:    6008        .`      STR      r0,[r1,#0]
        0x00001220:    60c8        .`      STR      r0,[r1,#0xc]
        0x00001222:    f000f91f    ....    BL       ReadData ; 0x1464
        0x00001226:    4604        .F      MOV      r4,r0
        0x00001228:    2001        .       MOVS     r0,#1
        0x0000122a:    f7fffd7c    ..|.    BL       Delay ; 0xd26
        0x0000122e:    2001        .       MOVS     r0,#1
        0x00001230:    4902        .I      LDR      r1,[pc,#8] ; [0x123c] = 0x60091000
        0x00001232:    60c8        .`      STR      r0,[r1,#0xc]
        0x00001234:    6008        .`      STR      r0,[r1,#0]
        0x00001236:    4620         F      MOV      r0,r4
        0x00001238:    bd10        ..      POP      {r4,pc}
    $d
        0x0000123a:    0000        ..      DCW    0
        0x0000123c:    60091000    ...`    DCD    1611206656
    $t
    i.LCD_ReadReg
    LCD_ReadReg
        0x00001240:    b510        ..      PUSH     {r4,lr}
        0x00001242:    4604        .F      MOV      r4,r0
        0x00001244:    4620         F      MOV      r0,r4
        0x00001246:    f000f891    ....    BL       LCD_WR_REG ; 0x136c
        0x0000124a:    2032        2       MOVS     r0,#0x32
        0x0000124c:    f7fffd6b    ..k.    BL       Delay ; 0xd26
        0x00001250:    f7ffffe0    ....    BL       LCD_RD_DATA ; 0x1214
        0x00001254:    bd10        ..      POP      {r4,pc}
    i.LCD_Scan_Dir
    LCD_Scan_Dir
        0x00001256:    b570        p.      PUSH     {r4-r6,lr}
        0x00001258:    4605        .F      MOV      r5,r0
        0x0000125a:    2400        .$      MOVS     r4,#0
        0x0000125c:    2d08        .-      CMP      r5,#8
        0x0000125e:    d21c        ..      BCS      0x129a ; LCD_Scan_Dir + 68
        0x00001260:    e8dff005    ....    TBB      [pc,r5]
    $d
        0x00001264:    0c090604    ....    DCD    201917956
        0x00001268:    1815120f    ....    DCD    404034063
    $t
        0x0000126c:    bf00        ..      NOP      
        0x0000126e:    e014        ..      B        0x129a ; LCD_Scan_Dir + 68
        0x00001270:    f0440480    D...    ORR      r4,r4,#0x80
        0x00001274:    e011        ..      B        0x129a ; LCD_Scan_Dir + 68
        0x00001276:    f0440440    D.@.    ORR      r4,r4,#0x40
        0x0000127a:    e00e        ..      B        0x129a ; LCD_Scan_Dir + 68
        0x0000127c:    f04404c0    D...    ORR      r4,r4,#0xc0
        0x00001280:    e00b        ..      B        0x129a ; LCD_Scan_Dir + 68
        0x00001282:    f0440420    D. .    ORR      r4,r4,#0x20
        0x00001286:    e008        ..      B        0x129a ; LCD_Scan_Dir + 68
        0x00001288:    f0440460    D.`.    ORR      r4,r4,#0x60
        0x0000128c:    e005        ..      B        0x129a ; LCD_Scan_Dir + 68
        0x0000128e:    f04404a0    D...    ORR      r4,r4,#0xa0
        0x00001292:    e002        ..      B        0x129a ; LCD_Scan_Dir + 68
        0x00001294:    f04404e0    D...    ORR      r4,r4,#0xe0
        0x00001298:    bf00        ..      NOP      
        0x0000129a:    bf00        ..      NOP      
        0x0000129c:    f0440408    D...    ORR      r4,r4,#8
        0x000012a0:    2036        6       MOVS     r0,#0x36
        0x000012a2:    f000f863    ..c.    BL       LCD_WR_REG ; 0x136c
        0x000012a6:    4620         F      MOV      r0,r4
        0x000012a8:    f000f846    ..F.    BL       LCD_WR_DATA ; 0x1338
        0x000012ac:    202a        *       MOVS     r0,#0x2a
        0x000012ae:    f000f85d    ..].    BL       LCD_WR_REG ; 0x136c
        0x000012b2:    2000        .       MOVS     r0,#0
        0x000012b4:    f000f840    ..@.    BL       LCD_WR_DATA ; 0x1338
        0x000012b8:    2000        .       MOVS     r0,#0
        0x000012ba:    f000f83d    ..=.    BL       LCD_WR_DATA ; 0x1338
        0x000012be:    2001        .       MOVS     r0,#1
        0x000012c0:    f000f83a    ..:.    BL       LCD_WR_DATA ; 0x1338
        0x000012c4:    203f        ?       MOVS     r0,#0x3f
        0x000012c6:    f000f837    ..7.    BL       LCD_WR_DATA ; 0x1338
        0x000012ca:    202b        +       MOVS     r0,#0x2b
        0x000012cc:    f000f84e    ..N.    BL       LCD_WR_REG ; 0x136c
        0x000012d0:    2000        .       MOVS     r0,#0
        0x000012d2:    f000f831    ..1.    BL       LCD_WR_DATA ; 0x1338
        0x000012d6:    2000        .       MOVS     r0,#0
        0x000012d8:    f000f82e    ....    BL       LCD_WR_DATA ; 0x1338
        0x000012dc:    2000        .       MOVS     r0,#0
        0x000012de:    f000f82b    ..+.    BL       LCD_WR_DATA ; 0x1338
        0x000012e2:    20ef        .       MOVS     r0,#0xef
        0x000012e4:    f000f828    ..(.    BL       LCD_WR_DATA ; 0x1338
        0x000012e8:    bd70        p.      POP      {r4-r6,pc}
    i.LCD_Thick_Window
    LCD_Thick_Window
        0x000012ea:    e92d43f8    -..C    PUSH     {r3-r9,lr}
        0x000012ee:    4604        .F      MOV      r4,r0
        0x000012f0:    460d        .F      MOV      r5,r1
        0x000012f2:    4616        .F      MOV      r6,r2
        0x000012f4:    461f        .F      MOV      r7,r3
        0x000012f6:    f8dd8020    .. .    LDR      r8,[sp,#0x20]
        0x000012fa:    463b        ;F      MOV      r3,r7
        0x000012fc:    4632        2F      MOV      r2,r6
        0x000012fe:    4629        )F      MOV      r1,r5
        0x00001300:    4620         F      MOV      r0,r4
        0x00001302:    f8cd8000    ....    STR      r8,[sp,#0]
        0x00001306:    f7fffdad    ....    BL       LCD_Draw_Window ; 0xe64
        0x0000130a:    f1a70c01    ....    SUB      r12,r7,#1
        0x0000130e:    fa1ff38c    ....    UXTH     r3,r12
        0x00001312:    f1a60c01    ....    SUB      r12,r6,#1
        0x00001316:    fa1ff28c    ....    UXTH     r2,r12
        0x0000131a:    f1050c01    ....    ADD      r12,r5,#1
        0x0000131e:    fa1ff18c    ....    UXTH     r1,r12
        0x00001322:    f1040c01    ....    ADD      r12,r4,#1
        0x00001326:    fa1ff08c    ....    UXTH     r0,r12
        0x0000132a:    f8cd8000    ....    STR      r8,[sp,#0]
        0x0000132e:    f7fffd99    ....    BL       LCD_Draw_Window ; 0xe64
        0x00001332:    e8bd83f8    ....    POP      {r3-r9,pc}
        0x00001336:    0000        ..      MOVS     r0,r0
    i.LCD_WR_DATA
    LCD_WR_DATA
        0x00001338:    b510        ..      PUSH     {r4,lr}
        0x0000133a:    4604        .F      MOV      r4,r0
        0x0000133c:    2001        .       MOVS     r0,#1
        0x0000133e:    490a        .I      LDR      r1,[pc,#40] ; [0x1368] = 0x60091000
        0x00001340:    6048        H`      STR      r0,[r1,#4]
        0x00001342:    2000        .       MOVS     r0,#0
        0x00001344:    6008        .`      STR      r0,[r1,#0]
        0x00001346:    2001        .       MOVS     r0,#1
        0x00001348:    f7fffced    ....    BL       Delay ; 0xd26
        0x0000134c:    4620         F      MOV      r0,r4
        0x0000134e:    f000f847    ..G.    BL       MakeData ; 0x13e0
        0x00001352:    2000        .       MOVS     r0,#0
        0x00001354:    4904        .I      LDR      r1,[pc,#16] ; [0x1368] = 0x60091000
        0x00001356:    6088        .`      STR      r0,[r1,#8]
        0x00001358:    2001        .       MOVS     r0,#1
        0x0000135a:    f7fffce4    ....    BL       Delay ; 0xd26
        0x0000135e:    2001        .       MOVS     r0,#1
        0x00001360:    4901        .I      LDR      r1,[pc,#4] ; [0x1368] = 0x60091000
        0x00001362:    6088        .`      STR      r0,[r1,#8]
        0x00001364:    6008        .`      STR      r0,[r1,#0]
        0x00001366:    bd10        ..      POP      {r4,pc}
    $d
        0x00001368:    60091000    ...`    DCD    1611206656
    $t
    i.LCD_WR_REG
    LCD_WR_REG
        0x0000136c:    b510        ..      PUSH     {r4,lr}
        0x0000136e:    4604        .F      MOV      r4,r0
        0x00001370:    2000        .       MOVS     r0,#0
        0x00001372:    490a        .I      LDR      r1,[pc,#40] ; [0x139c] = 0x60091000
        0x00001374:    6048        H`      STR      r0,[r1,#4]
        0x00001376:    6008        .`      STR      r0,[r1,#0]
        0x00001378:    2001        .       MOVS     r0,#1
        0x0000137a:    f7fffcd4    ....    BL       Delay ; 0xd26
        0x0000137e:    4620         F      MOV      r0,r4
        0x00001380:    f000f82e    ....    BL       MakeData ; 0x13e0
        0x00001384:    2000        .       MOVS     r0,#0
        0x00001386:    4905        .I      LDR      r1,[pc,#20] ; [0x139c] = 0x60091000
        0x00001388:    6088        .`      STR      r0,[r1,#8]
        0x0000138a:    2001        .       MOVS     r0,#1
        0x0000138c:    f7fffccb    ....    BL       Delay ; 0xd26
        0x00001390:    2001        .       MOVS     r0,#1
        0x00001392:    4902        .I      LDR      r1,[pc,#8] ; [0x139c] = 0x60091000
        0x00001394:    6088        .`      STR      r0,[r1,#8]
        0x00001396:    6008        .`      STR      r0,[r1,#0]
        0x00001398:    bd10        ..      POP      {r4,pc}
    $d
        0x0000139a:    0000        ..      DCW    0
        0x0000139c:    60091000    ...`    DCD    1611206656
    $t
    i.LED_LightUp
    LED_LightUp
        0x000013a0:    b500        ..      PUSH     {lr}
        0x000013a2:    4602        .F      MOV      r2,r0
        0x000013a4:    f000f87c    ..|.    BL       Read_GPIO_Output ; 0x14a0
        0x000013a8:    4603        .F      MOV      r3,r0
        0x000013aa:    f1020008    ....    ADD      r0,r2,#8
        0x000013ae:    2101        .!      MOVS     r1,#1
        0x000013b0:    fa01f000    ....    LSL      r0,r1,r0
        0x000013b4:    4318        .C      ORRS     r0,r0,r3
        0x000013b6:    b283        ..      UXTH     r3,r0
        0x000013b8:    4618        .F      MOV      r0,r3
        0x000013ba:    f000f8ad    ....    BL       Set_GPIO_Value ; 0x1518
        0x000013be:    bd00        ..      POP      {pc}
    i.LED_ShutDown
    LED_ShutDown
        0x000013c0:    b510        ..      PUSH     {r4,lr}
        0x000013c2:    4602        .F      MOV      r2,r0
        0x000013c4:    f000f86c    ..l.    BL       Read_GPIO_Output ; 0x14a0
        0x000013c8:    4603        .F      MOV      r3,r0
        0x000013ca:    2001        .       MOVS     r0,#1
        0x000013cc:    4090        .@      LSLS     r0,r0,r2
        0x000013ce:    b2c4        ..      UXTB     r4,r0
        0x000013d0:    43e0        .C      MVNS     r0,r4
        0x000013d2:    b2c4        ..      UXTB     r4,r0
        0x000013d4:    ea032304    ...#    AND      r3,r3,r4,LSL #8
        0x000013d8:    4618        .F      MOV      r0,r3
        0x000013da:    f000f89d    ....    BL       Set_GPIO_Value ; 0x1518
        0x000013de:    bd10        ..      POP      {r4,pc}
    i.MakeData
    MakeData
        0x000013e0:    f0000101    ....    AND      r1,r0,#1
        0x000013e4:    4a17        .J      LDR      r2,[pc,#92] ; [0x1444] = 0x60091000
        0x000013e6:    6191        .a      STR      r1,[r2,#0x18]
        0x000013e8:    f3c00240    ..@.    UBFX     r2,r0,#1,#1
        0x000013ec:    4915        .I      LDR      r1,[pc,#84] ; [0x1444] = 0x60091000
        0x000013ee:    61ca        .a      STR      r2,[r1,#0x1c]
        0x000013f0:    f3c00280    ....    UBFX     r2,r0,#2,#1
        0x000013f4:    620a        .b      STR      r2,[r1,#0x20]
        0x000013f6:    f3c002c0    ....    UBFX     r2,r0,#3,#1
        0x000013fa:    624a        Jb      STR      r2,[r1,#0x24]
        0x000013fc:    f3c01200    ....    UBFX     r2,r0,#4,#1
        0x00001400:    628a        .b      STR      r2,[r1,#0x28]
        0x00001402:    f3c01240    ..@.    UBFX     r2,r0,#5,#1
        0x00001406:    62ca        .b      STR      r2,[r1,#0x2c]
        0x00001408:    f3c01280    ....    UBFX     r2,r0,#6,#1
        0x0000140c:    630a        .c      STR      r2,[r1,#0x30]
        0x0000140e:    f3c012c0    ....    UBFX     r2,r0,#7,#1
        0x00001412:    634a        Jc      STR      r2,[r1,#0x34]
        0x00001414:    f3c02200    ..."    UBFX     r2,r0,#8,#1
        0x00001418:    638a        .c      STR      r2,[r1,#0x38]
        0x0000141a:    f3c02240    ..@"    UBFX     r2,r0,#9,#1
        0x0000141e:    63ca        .c      STR      r2,[r1,#0x3c]
        0x00001420:    f3c02280    ..."    UBFX     r2,r0,#10,#1
        0x00001424:    640a        .d      STR      r2,[r1,#0x40]
        0x00001426:    f3c022c0    ..."    UBFX     r2,r0,#11,#1
        0x0000142a:    644a        Jd      STR      r2,[r1,#0x44]
        0x0000142c:    f3c03200    ...2    UBFX     r2,r0,#12,#1
        0x00001430:    648a        .d      STR      r2,[r1,#0x48]
        0x00001432:    f3c03240    ..@2    UBFX     r2,r0,#13,#1
        0x00001436:    64ca        .d      STR      r2,[r1,#0x4c]
        0x00001438:    f3c03280    ...2    UBFX     r2,r0,#14,#1
        0x0000143c:    650a        .e      STR      r2,[r1,#0x50]
        0x0000143e:    0bc2        ..      LSRS     r2,r0,#15
        0x00001440:    654a        Je      STR      r2,[r1,#0x54]
        0x00001442:    4770        pG      BX       lr
    $d
        0x00001444:    60091000    ...`    DCD    1611206656
    $t
    i.MemManageHandler
    MemManageHandler
        0x00001448:    4770        pG      BX       lr
    i.NMIHandler
    NMIHandler
        0x0000144a:    4770        pG      BX       lr
    i.NVIC_EnableIRQ
    NVIC_EnableIRQ
        0x0000144c:    f000021f    ....    AND      r2,r0,#0x1f
        0x00001450:    2101        .!      MOVS     r1,#1
        0x00001452:    4091        .@      LSLS     r1,r1,r2
        0x00001454:    0942        B.      LSRS     r2,r0,#5
        0x00001456:    0092        ..      LSLS     r2,r2,#2
        0x00001458:    f10222e0    ..."    ADD      r2,r2,#0xe000e000
        0x0000145c:    f8c21100    ....    STR      r1,[r2,#0x100]
        0x00001460:    4770        pG      BX       lr
    i.PendSVHandler
    PendSVHandler
        0x00001462:    4770        pG      BX       lr
    i.ReadData
    ReadData
        0x00001464:    2100        .!      MOVS     r1,#0
        0x00001466:    2000        .       MOVS     r0,#0
        0x00001468:    e008        ..      B        0x147c ; ReadData + 24
        0x0000146a:    4a06        .J      LDR      r2,[pc,#24] ; [0x1484] = 0x60091018
        0x0000146c:    f8522020    R.      LDR      r2,[r2,r0,LSL #2]
        0x00001470:    2a01        .*      CMP      r2,#1
        0x00001472:    d102        ..      BNE      0x147a ; ReadData + 22
        0x00001474:    4082        .@      LSLS     r2,r2,r0
        0x00001476:    440a        .D      ADD      r2,r2,r1
        0x00001478:    b291        ..      UXTH     r1,r2
        0x0000147a:    1c40        @.      ADDS     r0,r0,#1
        0x0000147c:    2810        .(      CMP      r0,#0x10
        0x0000147e:    dbf4        ..      BLT      0x146a ; ReadData + 6
        0x00001480:    4608        .F      MOV      r0,r1
        0x00001482:    4770        pG      BX       lr
    $d
        0x00001484:    60091018    ...`    DCD    1611206680
    $t
    i.Read_CAMERA_DATA_STATE
    Read_CAMERA_DATA_STATE
        0x00001488:    4801        .H      LDR      r0,[pc,#4] ; [0x1490] = 0x60090000
        0x0000148a:    6980        .i      LDR      r0,[r0,#0x18]
        0x0000148c:    4770        pG      BX       lr
    $d
        0x0000148e:    0000        ..      DCW    0
        0x00001490:    60090000    ...`    DCD    1611202560
    $t
    i.Read_CAMERA_SDA
    Read_CAMERA_SDA
        0x00001494:    4801        .H      LDR      r0,[pc,#4] ; [0x149c] = 0x60090000
        0x00001496:    6900        .i      LDR      r0,[r0,#0x10]
        0x00001498:    4770        pG      BX       lr
    $d
        0x0000149a:    0000        ..      DCW    0
        0x0000149c:    60090000    ...`    DCD    1611202560
    $t
    i.Read_GPIO_Output
    Read_GPIO_Output
        0x000014a0:    4801        .H      LDR      r0,[pc,#4] ; [0x14a8] = 0x60092000
        0x000014a2:    6880        .h      LDR      r0,[r0,#8]
        0x000014a4:    b280        ..      UXTH     r0,r0
        0x000014a6:    4770        pG      BX       lr
    $d
        0x000014a8:    60092000    . .`    DCD    1611210752
    $t
    i.ResizerDoneHandler
    ResizerDoneHandler
        0x000014ac:    b510        ..      PUSH     {r4,lr}
        0x000014ae:    f7fff9c9    ....    BL       ACC_Start ; 0x844
        0x000014b2:    bd10        ..      POP      {r4,pc}
    i.Resizer_Start
    Resizer_Start
        0x000014b4:    2001        .       MOVS     r0,#1
        0x000014b6:    4901        .I      LDR      r1,[pc,#4] ; [0x14bc] = 0x600a0000
        0x000014b8:    6008        .`      STR      r0,[r1,#0]
        0x000014ba:    4770        pG      BX       lr
    $d
        0x000014bc:    600a0000    ...`    DCD    1611268096
    $t
    i.SVCHandler
    SVCHandler
        0x000014c0:    4770        pG      BX       lr
        0x000014c2:    0000        ..      MOVS     r0,r0
    i.Set_CAMERA_DATA_STATE
    Set_CAMERA_DATA_STATE
        0x000014c4:    4901        .I      LDR      r1,[pc,#4] ; [0x14cc] = 0x60090000
        0x000014c6:    6188        .a      STR      r0,[r1,#0x18]
        0x000014c8:    4770        pG      BX       lr
    $d
        0x000014ca:    0000        ..      DCW    0
        0x000014cc:    60090000    ...`    DCD    1611202560
    $t
    i.Set_CAMERA_RST
    Set_CAMERA_RST
        0x000014d0:    2001        .       MOVS     r0,#1
        0x000014d2:    4901        .I      LDR      r1,[pc,#4] ; [0x14d8] = 0x60090000
        0x000014d4:    6008        .`      STR      r0,[r1,#0]
        0x000014d6:    4770        pG      BX       lr
    $d
        0x000014d8:    60090000    ...`    DCD    1611202560
    $t
    i.Set_CAMERA_SCL
    Set_CAMERA_SCL
        0x000014dc:    2001        .       MOVS     r0,#1
        0x000014de:    4901        .I      LDR      r1,[pc,#4] ; [0x14e4] = 0x60090000
        0x000014e0:    6088        .`      STR      r0,[r1,#8]
        0x000014e2:    4770        pG      BX       lr
    $d
        0x000014e4:    60090000    ...`    DCD    1611202560
    $t
    i.Set_CAMERA_SDA
    Set_CAMERA_SDA
        0x000014e8:    2001        .       MOVS     r0,#1
        0x000014ea:    4901        .I      LDR      r1,[pc,#4] ; [0x14f0] = 0x60090000
        0x000014ec:    60c8        .`      STR      r0,[r1,#0xc]
        0x000014ee:    4770        pG      BX       lr
    $d
        0x000014f0:    60090000    ...`    DCD    1611202560
    $t
    i.Set_CAMERA_SDA_R
    Set_CAMERA_SDA_R
        0x000014f4:    2000        .       MOVS     r0,#0
        0x000014f6:    4901        .I      LDR      r1,[pc,#4] ; [0x14fc] = 0x60090000
        0x000014f8:    6148        Ha      STR      r0,[r1,#0x14]
        0x000014fa:    4770        pG      BX       lr
    $d
        0x000014fc:    60090000    ...`    DCD    1611202560
    $t
    i.Set_CAMERA_SDA_W
    Set_CAMERA_SDA_W
        0x00001500:    2001        .       MOVS     r0,#1
        0x00001502:    4901        .I      LDR      r1,[pc,#4] ; [0x1508] = 0x60090000
        0x00001504:    6148        Ha      STR      r0,[r1,#0x14]
        0x00001506:    4770        pG      BX       lr
    $d
        0x00001508:    60090000    ...`    DCD    1611202560
    $t
    i.Set_GPIO_Dir
    Set_GPIO_Dir
        0x0000150c:    4901        .I      LDR      r1,[pc,#4] ; [0x1514] = 0x60092000
        0x0000150e:    6048        H`      STR      r0,[r1,#4]
        0x00001510:    4770        pG      BX       lr
    $d
        0x00001512:    0000        ..      DCW    0
        0x00001514:    60092000    . .`    DCD    1611210752
    $t
    i.Set_GPIO_Value
    Set_GPIO_Value
        0x00001518:    4901        .I      LDR      r1,[pc,#4] ; [0x1520] = 0x60092000
        0x0000151a:    6088        .`      STR      r0,[r1,#8]
        0x0000151c:    4770        pG      BX       lr
    $d
        0x0000151e:    0000        ..      DCW    0
        0x00001520:    60092000    . .`    DCD    1611210752
    $t
    i.Set_SysTick_CTRL
    Set_SysTick_CTRL
        0x00001524:    f04f21e0    O..!    MOV      r1,#0xe000e000
        0x00001528:    6108        .a      STR      r0,[r1,#0x10]
        0x0000152a:    4770        pG      BX       lr
    i.Set_SysTick_LOAD
    Set_SysTick_LOAD
        0x0000152c:    f04f21e0    O..!    MOV      r1,#0xe000e000
        0x00001530:    6148        Ha      STR      r0,[r1,#0x14]
        0x00001532:    4770        pG      BX       lr
    i.Set_SysTick_VALUE
    Set_SysTick_VALUE
        0x00001534:    f04f21e0    O..!    MOV      r1,#0xe000e000
        0x00001538:    6188        .a      STR      r0,[r1,#0x18]
        0x0000153a:    4770        pG      BX       lr
    i.SysTickHandler
    SysTickHandler
        0x0000153c:    b500        ..      PUSH     {lr}
        0x0000153e:    2000        .       MOVS     r0,#0
        0x00001540:    f7fffff0    ....    BL       Set_SysTick_CTRL ; 0x1524
        0x00001544:    4803        .H      LDR      r0,[pc,#12] ; [0x1554] = 0xe000ed04
        0x00001546:    6800        .h      LDR      r0,[r0,#0]
        0x00001548:    f0407000    @..p    ORR      r0,r0,#0x2000000
        0x0000154c:    4901        .I      LDR      r1,[pc,#4] ; [0x1554] = 0xe000ed04
        0x0000154e:    6008        .`      STR      r0,[r1,#0]
        0x00001550:    bd00        ..      POP      {pc}
    $d
        0x00001552:    0000        ..      DCW    0
        0x00001554:    e000ed04    ....    DCD    3758157060
    $t
    i.SystemCoreClockUpdate
    SystemCoreClockUpdate
        0x00001558:    4801        .H      LDR      r0,[pc,#4] ; [0x1560] = 0x2faf080
        0x0000155a:    4902        .I      LDR      r1,[pc,#8] ; [0x1564] = 0x20000008
        0x0000155c:    6008        .`      STR      r0,[r1,#0]
        0x0000155e:    4770        pG      BX       lr
    $d
        0x00001560:    02faf080    ....    DCD    50000000
        0x00001564:    20000008    ...     DCD    536870920
    $t
    i.SystemInit
    SystemInit
        0x00001568:    b51f        ..      PUSH     {r0-r4,lr}
        0x0000156a:    f7fffff5    ....    BL       SystemCoreClockUpdate ; 0x1558
        0x0000156e:    f04f30ff    O..0    MOV      r0,#0xffffffff
        0x00001572:    f7ffff6b    ..k.    BL       NVIC_EnableIRQ ; 0x144c
        0x00001576:    2007        .       MOVS     r0,#7
        0x00001578:    f7ffff68    ..h.    BL       NVIC_EnableIRQ ; 0x144c
        0x0000157c:    2008        .       MOVS     r0,#8
        0x0000157e:    f7ffff65    ..e.    BL       NVIC_EnableIRQ ; 0x144c
        0x00001582:    2009        .       MOVS     r0,#9
        0x00001584:    f7ffff62    ..b.    BL       NVIC_EnableIRQ ; 0x144c
        0x00001588:    200a        .       MOVS     r0,#0xa
        0x0000158a:    f7ffff5f    .._.    BL       NVIC_EnableIRQ ; 0x144c
        0x0000158e:    2000        .       MOVS     r0,#0
        0x00001590:    f7ffff5c    ..\.    BL       NVIC_EnableIRQ ; 0x144c
        0x00001594:    2001        .       MOVS     r0,#1
        0x00001596:    f7ffff59    ..Y.    BL       NVIC_EnableIRQ ; 0x144c
        0x0000159a:    2002        .       MOVS     r0,#2
        0x0000159c:    f7ffff56    ..V.    BL       NVIC_EnableIRQ ; 0x144c
        0x000015a0:    2003        .       MOVS     r0,#3
        0x000015a2:    f7ffff53    ..S.    BL       NVIC_EnableIRQ ; 0x144c
        0x000015a6:    200b        .       MOVS     r0,#0xb
        0x000015a8:    f7ffff50    ..P.    BL       NVIC_EnableIRQ ; 0x144c
        0x000015ac:    f7fffbe4    ....    BL       Key_Init ; 0xd78
        0x000015b0:    f44f407f    O..@    MOV      r0,#0xff00
        0x000015b4:    f7ffffaa    ....    BL       Set_GPIO_Dir ; 0x150c
        0x000015b8:    f7fff96e    ..n.    BL       CAMERA_Init ; 0x898
        0x000015bc:    2005        .       MOVS     r0,#5
        0x000015be:    f7fffcb5    ....    BL       LCD_Init ; 0xf2c
        0x000015c2:    480a        .H      LDR      r0,[pc,#40] ; [0x15ec] = 0x20000008
        0x000015c4:    6800        .h      LDR      r0,[r0,#0]
        0x000015c6:    f44f31e1    O..1    MOV      r1,#0x1c200
        0x000015ca:    fbb0f4f1    ....    UDIV     r4,r0,r1
        0x000015ce:    2000        .       MOVS     r0,#0
        0x000015d0:    9000        ..      STR      r0,[sp,#0]
        0x000015d2:    9001        ..      STR      r0,[sp,#4]
        0x000015d4:    9002        ..      STR      r0,[sp,#8]
        0x000015d6:    2301        .#      MOVS     r3,#1
        0x000015d8:    461a        .F      MOV      r2,r3
        0x000015da:    4621        !F      MOV      r1,r4
        0x000015dc:    9003        ..      STR      r0,[sp,#0xc]
        0x000015de:    0798        ..      LSLS     r0,r3,#30
        0x000015e0:    f000f87e    ..~.    BL       uart_Init ; 0x16e0
        0x000015e4:    f7fff920    .. .    BL       ACC_RegInit ; 0x828
        0x000015e8:    bd1f        ..      POP      {r0-r4,pc}
    $d
        0x000015ea:    0000        ..      DCW    0
        0x000015ec:    20000008    ...     DCD    536870920
    $t
    i.Timer_Reset
    Timer_Reset
        0x000015f0:    2001        .       MOVS     r0,#1
        0x000015f2:    4901        .I      LDR      r1,[pc,#4] ; [0x15f8] = 0x40001000
        0x000015f4:    6008        .`      STR      r0,[r1,#0]
        0x000015f6:    4770        pG      BX       lr
    $d
        0x000015f8:    40001000    ...@    DCD    1073745920
    $t
    i.Timer_Show_Enable
    Timer_Show_Enable
        0x000015fc:    2001        .       MOVS     r0,#1
        0x000015fe:    4901        .I      LDR      r1,[pc,#4] ; [0x1604] = 0x40001000
        0x00001600:    6088        .`      STR      r0,[r1,#8]
        0x00001602:    4770        pG      BX       lr
    $d
        0x00001604:    40001000    ...@    DCD    1073745920
    $t
    i.Timer_Start
    Timer_Start
        0x00001608:    b510        ..      PUSH     {r4,lr}
        0x0000160a:    200a        .       MOVS     r0,#0xa
        0x0000160c:    f7fffb8b    ....    BL       Delay ; 0xd26
        0x00001610:    2000        .       MOVS     r0,#0
        0x00001612:    4902        .I      LDR      r1,[pc,#8] ; [0x161c] = 0x40001000
        0x00001614:    6008        .`      STR      r0,[r1,#0]
        0x00001616:    2001        .       MOVS     r0,#1
        0x00001618:    6048        H`      STR      r0,[r1,#4]
        0x0000161a:    bd10        ..      POP      {r4,pc}
    $d
        0x0000161c:    40001000    ...@    DCD    1073745920
    $t
    i.UARTOVRHandler
    UARTOVRHandler
        0x00001620:    4770        pG      BX       lr
    i.UARTRXHandler
    UARTRXHandler
        0x00001622:    4770        pG      BX       lr
    i.UARTTXHandler
    UARTTXHandler
        0x00001624:    4770        pG      BX       lr
    i.UsageFaultHandler
    UsageFaultHandler
        0x00001626:    4770        pG      BX       lr
    i.__scatterload_copy
    __scatterload_copy
        0x00001628:    e002        ..      B        0x1630 ; __scatterload_copy + 8
        0x0000162a:    c808        ..      LDM      r0!,{r3}
        0x0000162c:    1f12        ..      SUBS     r2,r2,#4
        0x0000162e:    c108        ..      STM      r1!,{r3}
        0x00001630:    2a00        .*      CMP      r2,#0
        0x00001632:    d1fa        ..      BNE      0x162a ; __scatterload_copy + 2
        0x00001634:    4770        pG      BX       lr
    i.__scatterload_null
    __scatterload_null
        0x00001636:    4770        pG      BX       lr
    i.__scatterload_zeroinit
    __scatterload_zeroinit
        0x00001638:    2000        .       MOVS     r0,#0
        0x0000163a:    e001        ..      B        0x1640 ; __scatterload_zeroinit + 8
        0x0000163c:    c101        ..      STM      r1!,{r0}
        0x0000163e:    1f12        ..      SUBS     r2,r2,#4
        0x00001640:    2a00        .*      CMP      r2,#0
        0x00001642:    d1fb        ..      BNE      0x163c ; __scatterload_zeroinit + 4
        0x00001644:    4770        pG      BX       lr
        0x00001646:    0000        ..      MOVS     r0,r0
    i.main
    main
        0x00001648:    bf00        ..      NOP      
        0x0000164a:    4820         H      LDR      r0,[pc,#128] ; [0x16cc] = 0x20000006
        0x0000164c:    7800        .x      LDRB     r0,[r0,#0]
        0x0000164e:    2800        .(      CMP      r0,#0
        0x00001650:    d0fb        ..      BEQ      0x164a ; main + 2
        0x00001652:    2000        .       MOVS     r0,#0
        0x00001654:    491d        .I      LDR      r1,[pc,#116] ; [0x16cc] = 0x20000006
        0x00001656:    7008        .p      STRB     r0,[r1,#0]
        0x00001658:    f7fff90e    ....    BL       CAMERA_ImageCap ; 0x878
        0x0000165c:    f7fffbb0    ....    BL       LCD_Display ; 0xdc0
        0x00001660:    bf00        ..      NOP      
        0x00001662:    481b        .H      LDR      r0,[pc,#108] ; [0x16d0] = 0x20000005
        0x00001664:    7800        .x      LDRB     r0,[r0,#0]
        0x00001666:    2800        .(      CMP      r0,#0
        0x00001668:    d0fb        ..      BEQ      0x1662 ; main + 26
        0x0000166a:    2000        .       MOVS     r0,#0
        0x0000166c:    4918        .I      LDR      r1,[pc,#96] ; [0x16d0] = 0x20000005
        0x0000166e:    7008        .p      STRB     r0,[r1,#0]
        0x00001670:    f7ffff20    .. .    BL       Resizer_Start ; 0x14b4
        0x00001674:    e011        ..      B        0x169a ; main + 82
        0x00001676:    4817        .H      LDR      r0,[pc,#92] ; [0x16d4] = 0x20000001
        0x00001678:    7800        .x      LDRB     r0,[r0,#0]
        0x0000167a:    2801        .(      CMP      r0,#1
        0x0000167c:    d105        ..      BNE      0x168a ; main + 66
        0x0000167e:    f7fffba9    ....    BL       LCD_Draw_FaceBox ; 0xdd4
        0x00001682:    2000        .       MOVS     r0,#0
        0x00001684:    4913        .I      LDR      r1,[pc,#76] ; [0x16d4] = 0x20000001
        0x00001686:    7008        .p      STRB     r0,[r1,#0]
        0x00001688:    e008        ..      B        0x169c ; main + 84
        0x0000168a:    4813        .H      LDR      r0,[pc,#76] ; [0x16d8] = 0x20000002
        0x0000168c:    7800        .x      LDRB     r0,[r0,#0]
        0x0000168e:    2801        .(      CMP      r0,#1
        0x00001690:    d103        ..      BNE      0x169a ; main + 82
        0x00001692:    2003        .       MOVS     r0,#3
        0x00001694:    f7fffe84    ....    BL       LED_LightUp ; 0x13a0
        0x00001698:    e000        ..      B        0x169c ; main + 84
        0x0000169a:    e7ec        ..      B        0x1676 ; main + 46
        0x0000169c:    bf00        ..      NOP      
        0x0000169e:    f7ffffa7    ....    BL       Timer_Reset ; 0x15f0
        0x000016a2:    f7ffffb1    ....    BL       Timer_Start ; 0x1608
        0x000016a6:    e00f        ..      B        0x16c8 ; main + 128
        0x000016a8:    f7ffffa8    ....    BL       Timer_Show_Enable ; 0x15fc
        0x000016ac:    1c60        `.      ADDS     r0,r4,#1
        0x000016ae:    b2c4        ..      UXTB     r4,r0
        0x000016b0:    2c08        .,      CMP      r4,#8
        0x000016b2:    d100        ..      BNE      0x16b6 ; main + 110
        0x000016b4:    2400        .$      MOVS     r4,#0
        0x000016b6:    4620         F      MOV      r0,r4
        0x000016b8:    f7fffe72    ..r.    BL       LED_LightUp ; 0x13a0
        0x000016bc:    4807        .H      LDR      r0,[pc,#28] ; [0x16dc] = 0x1312d00
        0x000016be:    f7fffb32    ..2.    BL       Delay ; 0xd26
        0x000016c2:    4620         F      MOV      r0,r4
        0x000016c4:    f7fffe7c    ..|.    BL       LED_ShutDown ; 0x13c0
        0x000016c8:    e7ee        ..      B        0x16a8 ; main + 96
    $d
        0x000016ca:    0000        ..      DCW    0
        0x000016cc:    20000006    ...     DCD    536870918
        0x000016d0:    20000005    ...     DCD    536870917
        0x000016d4:    20000001    ...     DCD    536870913
        0x000016d8:    20000002    ...     DCD    536870914
        0x000016dc:    01312d00    .-1.    DCD    20000000
    $t
    i.uart_Init
    uart_Init
        0x000016e0:    e92d41f0    -..A    PUSH     {r4-r8,lr}
        0x000016e4:    4604        .F      MOV      r4,r0
        0x000016e6:    460d        .F      MOV      r5,r1
        0x000016e8:    e9ddc808    ....    LDRD     r12,r8,[sp,#0x20]
        0x000016ec:    e9dd6706    ...g    LDRD     r6,r7,[sp,#0x18]
        0x000016f0:    2100        .!      MOVS     r1,#0
        0x000016f2:    b10a        ..      CBZ      r2,0x16f8 ; uart_Init + 24
        0x000016f4:    f0410101    A...    ORR      r1,r1,#1
        0x000016f8:    b10b        ..      CBZ      r3,0x16fe ; uart_Init + 30
        0x000016fa:    f0410102    A...    ORR      r1,r1,#2
        0x000016fe:    b10e        ..      CBZ      r6,0x1704 ; uart_Init + 36
        0x00001700:    f0410104    A...    ORR      r1,r1,#4
        0x00001704:    b10f        ..      CBZ      r7,0x170a ; uart_Init + 42
        0x00001706:    f0410108    A...    ORR      r1,r1,#8
        0x0000170a:    f1bc0f00    ....    CMP      r12,#0
        0x0000170e:    d001        ..      BEQ      0x1714 ; uart_Init + 52
        0x00001710:    f0410110    A...    ORR      r1,r1,#0x10
        0x00001714:    f1b80f00    ....    CMP      r8,#0
        0x00001718:    d001        ..      BEQ      0x171e ; uart_Init + 62
        0x0000171a:    f0410120    A. .    ORR      r1,r1,#0x20
        0x0000171e:    2000        .       MOVS     r0,#0
        0x00001720:    60a0        .`      STR      r0,[r4,#8]
        0x00001722:    6125        %a      STR      r5,[r4,#0x10]
        0x00001724:    60a1        .`      STR      r1,[r4,#8]
        0x00001726:    6860        `h      LDR      r0,[r4,#4]
        0x00001728:    f000000c    ....    AND      r0,r0,#0xc
        0x0000172c:    b110        ..      CBZ      r0,0x1734 ; uart_Init + 84
        0x0000172e:    2001        .       MOVS     r0,#1
        0x00001730:    e8bd81f0    ....    POP      {r4-r8,pc}
        0x00001734:    2000        .       MOVS     r0,#0
        0x00001736:    e7fb        ..      B        0x1730 ; uart_Init + 80
    $d.realdata
    .constdata
    camera_initial_reg
        0x00001738:    30110331    1..0    DCD    806421297
        0x0000173c:    08308208    ..0.    DCD    137396744
        0x00001740:    03033142    B1..    DCD    50540866
        0x00001744:    30ff1730    0..0    DCD    822023984
        0x00001748:    3430ff18    ..04    DCD    875626264
        0x0000174c:    0337301a    .07.    DCD    53948442
        0x00001750:    36010831    1..6    DCD    906037297
        0x00001754:    31363630    0661    DCD    825636400
        0x00001758:    e232360e    .62.    DCD    3794941454
        0x0000175c:    36123336    63.6    DCD    907162422
        0x00001760:    0437e021    !.7.    DCD    70770721
        0x00001764:    5a0337a0    .7.Z    DCD    1510160288
        0x00001768:    37781537    7.x7    DCD    930616631
        0x0000176c:    0b370117    ..7.    DCD    188154135
        0x00001770:    1a053760    `7..    DCD    436549472
        0x00001774:    39020539    9..9    DCD    956433721
        0x00001778:    01391006    ..9.    DCD    20516870
        0x0000177c:    1231370a    .71.    DCD    305215242
        0x00001780:    36080036    6..6    DCD    906494006
        0x00001784:    2d303301    .30-    DCD    758133505
        0x00001788:    52203660    `6 R    DCD    1377842784
        0x0000178c:    47201b37    7. G    DCD    1193286455
        0x00001790:    133a501c    .P:.    DCD    322588700
        0x00001794:    00183a43    C:..    DCD    1587779
        0x00001798:    36f8193a    :..6    DCD    922229050
        0x0000179c:    36361335    5.66    DCD    909513525
        0x000017a0:    40343603    .64@    DCD    1077163523
        0x000017a4:    3c012236    6".<    DCD    1006707254
        0x000017a8:    043c3401    .4<.    DCD    71054337
        0x000017ac:    98053c28    (<..    DCD    2550479912
        0x000017b0:    3c00063c    <..<    DCD    1006634556
        0x000017b4:    083c0807    ..<.    DCD    138151943
        0x000017b8:    1c093c00    .<..    DCD    470367232
        0x000017bc:    3c9c0a3c    <..<    DCD    1016859196
        0x000017c0:    1038400b    .@8.    DCD    272121867
        0x000017c4:    10113800    .8..    DCD    269563904
        0x000017c8:    37001238    8..7    DCD    922751544
        0x000017cc:    01406408    .d@.    DCD    20997128
        0x000017d0:    1a054002    .@..    DCD    436551682
        0x000017d4:    30000030    0..0    DCD    805306416
        0x000017d8:    0e30ff04    ..0.    DCD    238092036
        0x000017dc:    002e3058    X0..    DCD    3027032
        0x000017e0:    50600043    C.`P    DCD    1348468803
        0x000017e4:    0e44011f    ..D.    DCD    239337759
        0x000017e8:    a7005000    .P..    DCD    2801815552
        0x000017ec:    3a300f3a    :.0:    DCD    976228154
        0x000017f0:    1b3a2810    .(:.    DCD    456796176
        0x000017f4:    261e3a30    0:.&    DCD    639515184
        0x000017f8:    3a60113a    :.`:    DCD    979374394
        0x000017fc:    0058141f    ..X.    DCD    5772319
        0x00001800:    14015823    #X..    DCD    335632419
        0x00001804:    580f0258    X..X    DCD    1477378648
        0x00001808:    04580f03    ..X.    DCD    72879875
        0x0000180c:    26055812    .X.&    DCD    637884434
        0x00001810:    580c0658    X..X    DCD    1477183064
        0x00001814:    08580807    ..X.    DCD    139986951
        0x00001818:    05095805    .X..    DCD    84498437
        0x0000181c:    58080a58    X..X    DCD    1476921944
        0x00001820:    0c580d0b    ..X.    DCD    207097099
        0x00001824:    030d5808    .X..    DCD    51206152
        0x00001828:    58000e58    X..X    DCD    1476398680
        0x0000182c:    1058000f    ..X.    DCD    274202639
        0x00001830:    09115803    .X..    DCD    152131587
        0x00001834:    58071258    X..X    DCD    1476858456
        0x00001838:    14580313    ..X.    DCD    341312275
        0x0000183c:    01155800    .X..    DCD    18176000
        0x00001840:    58031658    X..X    DCD    1476597336
        0x00001844:    18580817    ..X.    DCD    408422423
        0x00001848:    0819580d    .X..    DCD    135878669
        0x0000184c:    58051a58    X..X    DCD    1476729432
        0x00001850:    1c58061b    ..X.    DCD    475530779
        0x00001854:    0e1d5808    .X..    DCD    236804104
        0x00001858:    58291e58    X.)X    DCD    1479089752
        0x0000185c:    2058171f    ..X     DCD    542643999
        0x00001860:    11215811    .X!.    DCD    287397905
        0x00001864:    58152258    X".X    DCD    1477780056
        0x00001868:    24582823    #(X$    DCD    609757219
        0x0000186c:    26255846    FX%&    DCD    639981638
        0x00001870:    58082658    X&.X    DCD    1476929112
        0x00001874:    28582627    '&X(    DCD    676865575
        0x00001878:    26295864    dX)&    DCD    640243812
        0x0000187c:    58242a58    X*$X    DCD    1478765144
        0x00001880:    2c58222b    +"X,    DCD    743973419
        0x00001884:    242d5824    $X-$    DCD    606951460
        0x00001888:    58062e58    X..X    DCD    1476800088
        0x0000188c:    3058222f    /"X0    DCD    811082287
        0x00001890:    42315840    @X1B    DCD    1110530112
        0x00001894:    58243258    X2$X    DCD    1478767192
        0x00001898:    34582633    3&X4    DCD    878192179
        0x0000189c:    22355824    $X5"    DCD    573921316
        0x000018a0:    58223658    X6"X    DCD    1478637144
        0x000018a4:    38582637    7&X8    DCD    945301047
        0x000018a8:    24395844    DX9$    DCD    607737924
        0x000018ac:    58263a58    X:&X    DCD    1478900312
        0x000018b0:    3c58283b    ;(X<    DCD    1012410427
        0x000018b4:    ce3d5842    BX=.    DCD    3460126786
        0x000018b8:    51ff8051    Q..Q    DCD    1375699025
        0x000018bc:    8251f281    ..Q.    DCD    2186408577
        0x000018c0:    14835100    .Q..    DCD    344150272
        0x000018c4:    51258451    Q.%Q    DCD    1361413201
        0x000018c8:    86512485    .$Q.    DCD    2253464709
        0x000018cc:    09875109    .Q..    DCD    159863049
        0x000018d0:    51098851    Q..Q    DCD    1359579217
        0x000018d4:    8a517589    .uQ.    DCD    2320594313
        0x000018d8:    e08b5154    TQ..    DCD    3767226708
        0x000018dc:    51b28c51    Q..Q    DCD    1370655825
        0x000018e0:    8e51428d    .BQ.    DCD    2387690125
        0x000018e4:    568f513d    =Q.V    DCD    1452233021
        0x000018e8:    51469051    Q.FQ    DCD    1363578961
        0x000018ec:    9251f891    ..Q.    DCD    2454845585
        0x000018f0:    70935104    .Q.p    DCD    1888702724
        0x000018f4:    51f09451    Q..Q    DCD    1374721105
        0x000018f8:    9651f095    ..Q.    DCD    2521952405
        0x000018fc:    01975103    .Q..    DCD    26693891
        0x00001900:    51049851    Q..Q    DCD    1359255633
        0x00001904:    9a511299    ..Q.    DCD    2589004441
        0x00001908:    009b5104    .Q..    DCD    10178820
        0x0000190c:    51069c51    Q..Q    DCD    1359387729
        0x00001910:    9e51829d    ..Q.    DCD    2656141981
        0x00001914:    01805438    8T..    DCD    25187384
        0x00001918:    54088154    T..T    DCD    1409843540
        0x0000191c:    83541482    ..T.    DCD    2203325570
        0x00001920:    51845428    (T.Q    DCD    1367626792
        0x00001924:    54658554    T.eT    DCD    1415939412
        0x00001928:    87547186    .qT.    DCD    2270458246
        0x0000192c:    8788547d    }T..    DCD    2273858685
        0x00001930:    54918954    T..T    DCD    1418824020
        0x00001934:    8b549a8a    ..T.    DCD    2337577610
        0x00001938:    b88c54aa    .T..    DCD    3096204458
        0x0000193c:    54cd8d54    T..T    DCD    1422757204
        0x00001940:    8f54dd8e    ..T.    DCD    2404703630
        0x00001944:    1d9054ea    .T..    DCD    495998186
        0x00001948:    531e8153    S..S    DCD    1394508115
        0x0000194c:    83535b82    .[S.    DCD    2203278210
        0x00001950:    0a845308    .S..    DCD    176444168
        0x00001954:    537e8553    S.~S    DCD    1400800595
        0x00001958:    87538886    ..S.    DCD    2270398598
        0x0000195c:    6c88537c    |S.l    DCD    1820873596
        0x00001960:    53108953    S..S    DCD    1393592659
        0x00001964:    8b53018a    ..S.    DCD    2337472906
        0x00001968:    06805598    .U..    DCD    109073816
        0x0000196c:    55408355    U.@U    DCD    1430291285
        0x00001970:    89551084    ..U.    DCD    2304053380
        0x00001974:    008a5510    .U..    DCD    9065744
        0x00001978:    50f88b55    U..P    DCD    1358465877
        0x0000197c:    0053401d    .@S.    DCD    5455901
        0x00001980:    30015308    .S.0    DCD    805393160
        0x00001984:    53100253    S..S    DCD    1393558099
        0x00001988:    04530003    ..S.    DCD    72548355
        0x0000198c:    30055308    .S.0    DCD    805655304
        0x00001990:    53080653    S..S    DCD    1393034835
        0x00001994:    09531607    ..S.    DCD    156440071
        0x00001998:    300a5308    .S.0    DCD    805982984
        0x0000199c:    53040b53    S..S    DCD    1392773971
        0x000019a0:    2550060c    ..P%    DCD    626001420
        0x000019a4:    02083000    .0..    DCD    34091008
        0x000019a8:    30213530    05!0    DCD    807482672
        0x000019ac:    073c7236    6r<.    DCD    121401910
        0x000019b0:    47203808    .8 G    DCD    1193293832
        0x000019b4:    38012138    8!.8    DCD    939598136
        0x000019b8:    15383114    .18.    DCD    356004116
        0x000019bc:    00003831    18..    DCD    14385
        0x000019c0:    38000138    8..8    DCD    939524408
        0x000019c4:    03380002    ..8.    DCD    54001666
        0x000019c8:    0a043804    .8..    DCD    168048644
        0x000019cc:    383f0538    8.?8    DCD    943654200
        0x000019d0:    07380706    ..8.    DCD    121112326
        0x000019d4:    0208389b    .8..    DCD    34093211
        0x000019d8:    38800938    8..8    DCD    947915064
        0x000019dc:    0b38010a    ..8.    DCD    188219658
        0x000019e0:    070c38e0    .8..    DCD    118241504
        0x000019e4:    38680d38    8.h8    DCD    946343224
        0x000019e8:    0f38030e    ..8.    DCD    255329038
        0x000019ec:    001836d8    .6..    DCD    1586904
        0x000019f0:    37291236    6.)7    DCD    925438518
        0x000019f4:    0c375209    .R7.    DCD    204952073
        0x000019f8:    0b023a03    .:..    DCD    184695299
        0x000019fc:    3a88033a    :..:    DCD    981992250
        0x00001a00:    153a0b14    ..:.    DCD    356125460
        0x00001a04:    02044088    .@..    DCD    33833096
        0x00001a08:    301c0230    0..0    DCD    807141936
        0x00001a0c:    1347c306    ..G.    DCD    323470086
        0x00001a10:    04074403    .D..    DCD    67585027
        0x00001a14:    46350b46    F.5F    DCD    1177881414
        0x00001a18:    3748220c    ."H7    DCD    927474188
        0x00001a1c:    02243822    "8$.    DCD    35928098
        0x00001a20:    35a70150    P..5    DCD    900137296
        0x00001a24:    003b0003    ..;.    DCD    3866627
        0x00001a28:    00003b83    .;..    DCD    15235
        0x00001a2c:    38031232    2..8    DCD    939725362
        0x00001a30:    09380108    ..8.    DCD    154665224
        0x00001a34:    000a3840    @8..    DCD    669760
        0x00001a38:    38f00b38    8..8    DCD    955255608
        0x00001a3c:    11380010    ..8.    DCD    288882704
        0x00001a40:    00123880    .8..    DCD    1194112
        0x00001a44:    32ac1338    8..2    DCD    850137912
        0x00001a48:    12321312    ..2.    DCD    305271570
        0x00001a4c:    a3          .       DCB    163
    OV5640_AF_FW
        0x00001a4d:    020df3      ...     DCB    2,13,243
        0x00001a50:    c25f0a02    .._.    DCD    3261008386
        0x00001a54:    00222201    ."".    DCD    2236929
        0x00001a58:    30310f02    ..10    DCD    808521474
        0x00001a5c:    03020301    ....    DCD    50463489
        0x00001a60:    03023009    .0..    DCD    50475017
        0x00001a64:    90090302    ....    DCD    2416509698
        0x00001a68:    78e0a551    Q..x    DCD    2027988305
        0x00001a6c:    e0a3f6bb    ....    DCD    3768841915
        0x00001a70:    e0a3f608    ....    DCD    3768841736
        0x00001a74:    1fe5f608    ....    DCD    535164424
        0x00001a78:    1e754570    pEu.    DCD    511001968
        0x00001a7c:    1234d220     .4.    DCD    305451552
        0x00001a80:    9c780c0c    ..x.    DCD    2625113100
        0x00001a84:    78d20b12    ...x    DCD    2027031314
        0x00001a88:    0814a6a8    ....    DCD    135571112
        0x00001a8c:    b37815a6    ..x.    DCD    3010991526
        0x00001a90:    761809a6    ...v    DCD    1981286822
        0x00001a94:    a64c7801    .xL.    DCD    2790029313
        0x00001a98:    0ba6080a    ....    DCD    195430410
        0x00001a9c:    14a66c78    xl..    DCD    346451064
        0x00001aa0:    7815a608    ...x    DCD    2014684680
        0x00001aa4:    8c78e6b3    ..x.    DCD    2356733619
        0x00001aa8:    011f75f6    .u..    DCD    18839030
        0x00001aac:    78e6bb78    x..x    DCD    2028387192
        0x00001ab0:    bc78f6b8    ..x.    DCD    3162044088
        0x00001ab4:    f6b978e6    .x..    DCD    4139350246
        0x00001ab8:    78e6bd78    x..x    DCD    2028387704
        0x00001abc:    7922f6ba    .."y    DCD    2032334522
        0x00001ac0:    78d3e7b8    ...x    DCD    2027153336
        0x00001ac4:    054096bb    ..@.    DCD    88118971
        0x00001ac8:    80ff96e7    ....    DCD    2164233959
        0x00001acc:    bb79c308    ..y.    DCD    3145319176
        0x00001ad0:    96b878e7    .x..    DCD    2528671975
        0x00001ad4:    76a678ff    .x.v    DCD    1990621439
        0x00001ad8:    07a60800    ....    DCD    128321536
        0x00001adc:    d3e7b979    y...    DCD    3555178873
        0x00001ae0:    4096bc78    x..@    DCD    1083620472
        0x00001ae4:    ff96e705    ....    DCD    4288079621
        0x00001ae8:    79c30880    ...y    DCD    2042824832
        0x00001aec:    b978e7bc    ..x.    DCD    3111708604
        0x00001af0:    0c12ff96    ....    DCD    202571670
        0x00001af4:    e7ba7913    .y..    DCD    3887757587
        0x00001af8:    96bd78d3    .x..    DCD    2528999635
        0x00001afc:    96e70540    @...    DCD    2531722560
        0x00001b00:    c30880ff    ....    DCD    3272114431
        0x00001b04:    78e7bd79    y..x    DCD    2028453241
        0x00001b08:    12ff96ba    ....    DCD    318740154
        0x00001b0c:    b278130c    ..x.    DCD    2994213644
        0x00001b10:    24e025e6    .%.$    DCD    618669542
        0x00001b14:    0aa6f84c    L...    DCD    178714700
        0x00001b18:    780ba608    ...x    DCD    2014029320
        0x00001b1c:    e025e6b2    ..%.    DCD    3760580274
        0x00001b20:    a6f86c24    $l..    DCD    2801298468
        0x00001b24:    15a60814    ....    DCD    363202580
        0x00001b28:    24e6b278    x..$    DCD    619098744
        0x00001b2c:    09a6f88c    ....    DCD    161937548
        0x00001b30:    24e6b278    x..$    DCD    619098744
        0x00001b34:    33e4ff01    ...3    DCD    870645505
        0x00001b38:    94efd3fe    ....    DCD    2498745342
        0x00001b3c:    8064ee0f    ..d.    DCD    2154098191
        0x00001b40:    04408094    ..@.    DCD    71336084
        0x00001b44:    0580007f    ....    DCD    92274815
        0x00001b48:    04e6b278    x...    DCD    82227832
        0x00001b4c:    a6b278ff    .x..    DCD    2796714239
        0x00001b50:    b41fe507    ....    DCD    3021989127
        0x00001b54:    60e60a01    ...`    DCD    1625688577
        0x00001b58:    09030203    ....    DCD    151192067
        0x00001b5c:    22021f75    u.."    DCD    570564469
        0x00001b60:    780c0c12    ...x    DCD    2014055442
        0x00001b64:    d20b129e    ....    DCD    3523941022
        0x00001b68:    780c0c12    ...x    DCD    2014055442
        0x00001b6c:    ff0b12a0    ....    DCD    4278915744
        0x00001b70:    0b12aa78    x...    DCD    185772664
        0x00001b74:    ac78ffff    ..x.    DCD    2893611007
        0x00001b78:    a60806a6    ....    DCD    2785543846
        0x00001b7c:    e68c7807    .x..    DCD    3867965447
        0x00001b80:    78f6b478    x..x    DCD    2029433976
        0x00001b84:    b578e68c    ..x.    DCD    3044599436
        0x00001b88:    ef017ff6    ....    DCD    4009852918
        0x00001b8c:    4d24e025    %.$M    DCD    1294262309
        0x00001b90:    0b129f78    x...    DCD    185769848
        0x00001b94:    120a50c9    .P..    DCD    302665929
        0x00001b98:    9e78ab0b    ..x.    DCD    2658708235
        0x00001b9c:    a60804a6    ....    DCD    2785543334
        0x00001ba0:    e025ef05    ..%.    DCD    3760582405
        0x00001ba4:    ab786d24    $mx.    DCD    2876796196
        0x00001ba8:    50c90b12    ...P    DCD    1355352850
        0x00001bac:    e025ef0f    ..%.    DCD    3760582415
        0x00001bb0:    0b126c24    $l..    DCD    185756708
        0x00001bb4:    a6aa78b0    .x..    DCD    2796189872
        0x00001bb8:    05a60804    ....    DCD    94767108
        0x00001bbc:    f92f8c74    t./.    DCD    4180642932
        0x00001bc0:    c3e6b478    x...    DCD    3286676600
        0x00001bc4:    74085097    .P.t    DCD    1946701975
        0x00001bc8:    e6f82f8c    ./..    DCD    3875024780
        0x00001bcc:    eff6b478    x...    DCD    4025922680
        0x00001bd0:    4d24e025    %.$M    DCD    1294262309
        0x00001bd4:    a178d3f9    ..x.    DCD    2709050361
        0x00001bd8:    40cb0b12    ...@    DCD    1087048466
        0x00001bdc:    ab0b120a    ....    DCD    2869629450
        0x00001be0:    04a6a078    x...    DCD    78028920
        0x00001be4:    ef05a608    ....    DCD    4010124808
        0x00001be8:    6d24e025    %.$m    DCD    1831133221
        0x00001bec:    ad78d3f9    ..x.    DCD    2910376953
        0x00001bf0:    40cb0b12    ...@    DCD    1087048466
        0x00001bf4:    e025ef0f    ..%.    DCD    3760582415
        0x00001bf8:    0b126c24    $l..    DCD    185756708
        0x00001bfc:    a6ac78b0    .x..    DCD    2796320944
        0x00001c00:    05a60804    ....    DCD    94767108
        0x00001c04:    f92f8c74    t./.    DCD    4180642932
        0x00001c08:    d3e6b578    x...    DCD    3555112312
        0x00001c0c:    74084097    .@.t    DCD    1946697879
        0x00001c10:    e6f82f8c    ./..    DCD    3875024780
        0x00001c14:    0ff6b578    x...    DCD    267826552
        0x00001c18:    601064ef    .d.`    DCD    1611687151
        0x00001c1c:    3e010203    ...>    DCD    1040253443
        0x00001c20:    789f79c3    .y.x    DCD    2023717315
        0x00001c24:    f70b12a1    ....    DCD    4144698017
        0x00001c28:    08f6a278    x...    DCD    150381176
        0x00001c2c:    79c307a6    ...y    DCD    2042824614
        0x00001c30:    12ad78ab    .x..    DCD    313358507
        0x00001c34:    ae78f70b    ..x.    DCD    2927163147
        0x00001c38:    07a608f6    ....    DCD    128321782
        0x00001c3c:    e7b479c3    .y..    DCD    3887364547
        0x00001c40:    0896b578    x...    DCD    144094584
        0x00001c44:    9f79d3f6    ..y.    DCD    2675561462
        0x00001c48:    969d78e7    .x..    DCD    2526902503
        0x00001c4c:    9618e719    ....    DCD    2518214425
        0x00001c50:    e7090540    @...    DCD    3876128064
        0x00001c54:    c3068008    ....    DCD    3271983112
        0x00001c58:    78e79d79    y..x    DCD    2028445049
        0x00001c5c:    f80b129f    ....    DCD    4161475231
        0x00001c60:    a6a478fe    .x..    DCD    2795796734
        0x00001c64:    07a60806    ....    DCD    128321542
        0x00001c68:    e7ab79d3    .y..    DCD    3886774739
        0x00001c6c:    1996a978    x...    DCD    429304184
        0x00001c70:    409618e7    ...@    DCD    1083578599
        0x00001c74:    08e70905    ....    DCD    149358853
        0x00001c78:    79c30680    ...y    DCD    2042824320
        0x00001c7c:    ab78e7a9    ..x.    DCD    2876827561
        0x00001c80:    fef80b12    ....    DCD    4277668626
        0x00001c84:    06a6b078    x...    DCD    111587448
        0x00001c88:    7907a608    ...y    DCD    2030544392
        0x00001c8c:    78d3e7b4    ...x    DCD    2027153332
        0x00001c90:    054096b3    ..@.    DCD    88118963
        0x00001c94:    80ff96e7    ....    DCD    2164233959
        0x00001c98:    b379c308    ..y.    DCD    3011101448
        0x00001c9c:    96b478e7    .x..    DCD    2528409831
        0x00001ca0:    a6b778ff    .x..    DCD    2797041919
        0x00001ca4:    641fe507    ...d    DCD    1679811847
        0x00001ca8:    02036002    .`..    DCD    33775618
        0x00001cac:    3090ef02    ...0    DCD    814804738
        0x00001cb0:    f00f7424    $t..    DCD    4027544612
        0x00001cb4:    e48a0e90    ....    DCD    3834252944
        0x00001cb8:    e618ff93    ....    DCD    3860397971
        0x00001cbc:    03409fc3    ..@.    DCD    54566851
        0x00001cc0:    90090302    ....    DCD    2416509698
        0x00001cc4:    0e742430    0$t.    DCD    242492464
        0x00001cc8:    12a278f0    .x..    DCD    312637680
        0x00001ccc:    0b12d90b    ....    DCD    185784587
        0x00001cd0:    870e90a2    ....    DCD    2265878690
        0x00001cd4:    78b70b12    ...x    DCD    2025261842
        0x00001cd8:    e80b129e    ....    DCD    3893039774
        0x00001cdc:    0b12047b    {...    DCD    185730171
        0x00001ce0:    0712c390    ....    DCD    118670224
        0x00001ce4:    906f500e    .Po.    DCD    2423214094
        0x00001ce8:    93e48b0e    ....    DCD    2481228558
        0x00001cec:    e6b778ff    .x..    DCD    3870783743
        0x00001cf0:    9007409f    .@..    DCD    2416394399
        0x00001cf4:    0a742430    0$t.    DCD    175383600
        0x00001cf8:    0e901680    ....    DCD    244323968
        0x00001cfc:    ff93e489    ....    DCD    4287882377
        0x00001d00:    e6a778d3    .x..    DCD    3869735123
        0x00001d04:    94e6189f    ....    DCD    2498107551
        0x00001d08:    90094000    .@..    DCD    2416525312
        0x00001d0c:    0b742430    0$t.    DCD    192160816
        0x00001d10:    051f75f0    .u..    DCD    85947888
        0x00001d14:    0b12ae78    x...    DCD    185773688
        0x00001d18:    a20b12d9    ....    DCD    2718634713
        0x00001d1c:    12880e90    ....    DCD    310906512
        0x00001d20:    a878b70b    ..x.    DCD    2826483467
        0x00001d24:    7be80b12    ...{    DCD    2078804754
        0x00001d28:    900b1240    @...    DCD    2416644672
        0x00001d2c:    0e0712d3    ....    DCD    235344595
        0x00001d30:    30902440    @$.0    DCD    814752832
        0x00001d34:    f00c7424    $t..    DCD    4027348004
        0x00001d38:    22051f75    u.."    DCD    570761077
        0x00001d3c:    74243090    .0$t    DCD    1948528784
        0x00001d40:    1fe5f001    ....    DCD    535162881
        0x00001d44:    d20f05b4    ....    DCD    3524199860
        0x00001d48:    e402c201    ....    DCD    3825385985
        0x00001d4c:    1ef51ff5    ....    DCD    519380981
        0x00001d50:    32d234d2    .4.2    DCD    852636882
        0x00001d54:    e52235d2    .5".    DCD    3844224466
        0x00001d58:    0203601f    .`..    DCD    33775647
        0x00001d5c:    1ef59303    ....    DCD    519410435
        0x00001d60:    347534d2    .4u4    DCD    880096466
        0x00001d64:    0e3575ff    .u5.    DCD    238384639
        0x00001d68:    75553675    u6Uu    DCD    1968518773
        0x00001d6c:    0d120137    7...    DCD    219283767
        0x00001d70:    efffe485    ....    DCD    4026524805
        0x00001d74:    4c24e025    %.$L    DCD    1277485093
        0x00001d78:    08f6e4f8    ....    DCD    150398200
        0x00001d7c:    34bf0ff6    ...4    DCD    884936694
        0x00001d80:    8c0e90f2    ....    DCD    2349764850
        0x00001d84:    e5ff93e4    ....    DCD    3858732004
        0x00001d88:    509fc349    I..P    DCD    1352647497
        0x00001d8c:    80057f04    ....    DCD    2147843844
        0x00001d90:    78fb7f02    ...x    DCD    2029747970
        0x00001d94:    1207a6bb    ....    DCD    302491323
        0x00001d98:    0440bc0e    ..@.    DCD    71351310
        0x00001d9c:    0280037f    ....    DCD    41943935
        0x00001da0:    ba78307f    .0x.    DCD    3128438911
        0x00001da4:    18e607a6    ....    DCD    417728422
        0x00001da8:    78e608f6    ...x    DCD    2028341494
        0x00001dac:    ba78f6b7    ..x.    DCD    3128489655
        0x00001db0:    f6b878e6    .x..    DCD    4139284710
        0x00001db4:    3376bd78    x.v3    DCD    863419768
        0x00001db8:    78f608e4    ...x    DCD    2029390052
        0x00001dbc:    750176b6    .v.u    DCD    1963030198
        0x00001dc0:    b4780248    H.x.    DCD    3027763784
        0x00001dc4:    74f608f6    ...t    DCD    1962281206
        0x00001dc8:    f6bf78ff    .x..    DCD    4139743487
        0x00001dcc:    1f75f608    ..u.    DCD    527824392
        0x00001dd0:    e6ba7801    .x..    DCD    3870980097
        0x00001dd4:    a405f075    u...    DCD    2751852661
        0x00001dd8:    0a1249f5    .I..    DCD    168970741
        0x00001ddc:    2236c2fd    ..6"    DCD    574014205
        0x00001de0:    d3e6b678    x...    DCD    3555112568
        0x00001de4:    02400094    ..@.    DCD    37748884
        0x00001de8:    1fe52216    ."..    DCD    535110166
        0x00001dec:    e42305b4    ..#.    DCD    3827500468
        0x00001df0:    01c21ff5    ....    DCD    29499381
        0x00001df4:    fee6b478    x...    DCD    4276532344
        0x00001df8:    78ffe608    ...x    DCD    2030036488
        0x00001dfc:    0806a64c    L...    DCD    134653516
        0x00001e00:    36a207a6    ...6    DCD    916588454
        0x00001e04:    3cf533e4    .3.<    DCD    1022702564
        0x00001e08:    f0283090    .0(.    DCD    4029165712
        0x00001e0c:    d2101e75    u...    DCD    3524271733
        0x00001e10:    49e52234    4".I    DCD    1239753268
        0x00001e14:    8405f075    u...    DCD    2214981749
        0x00001e18:    90f6ba78    x...    DCD    2432088696
        0x00001e1c:    93e4850e    ....    DCD    2481227022
        0x00001e20:    24e025ff    .%.$    DCD    618669567
        0x00001e24:    fce6f80a    ....    DCD    4242995210
        0x00001e28:    78fde608    ...x    DCD    2029905416
        0x00001e2c:    e025e6ba    ..%.    DCD    3760580282
        0x00001e30:    a6f84c24    $L..    DCD    2801290276
        0x00001e34:    05a60804    ....    DCD    94767108
        0x00001e38:    c30e12ef    ....    DCD    3272479471
        0x00001e3c:    96b578d3    .x..    DCD    2528475347
        0x00001e40:    409618ee    ...@    DCD    1083578606
        0x00001e44:    e6ba780d    .x..    DCD    3870980109
        0x00001e48:    78f6b778    x..x    DCD    2029434744
        0x00001e4c:    0806a6b4    ....    DCD    134653620
        0x00001e50:    0e9007a6    ....    DCD    244320166
        0x00001e54:    1293e485    ....    DCD    311682181
        0x00001e58:    78c3c30e    ...x    DCD    2026095374
        0x00001e5c:    18ee96c0    ....    DCD    418289344
        0x00001e60:    780d5096    .P.x    DCD    2014138518
        0x00001e64:    b878e6ba    ..x.    DCD    3094931130
        0x00001e68:    a6bf78f6    .x..    DCD    2797566198
        0x00001e6c:    07a60806    ....    DCD    128321542
        0x00001e70:    fee6b478    x...    DCD    4276532344
        0x00001e74:    78c3e608    ...x    DCD    2026104328
        0x00001e78:    eeff96c0    ....    DCD    4009727680
        0x00001e7c:    c1789618    ..x.    DCD    3245905432
        0x00001e80:    07a608f6    ....    DCD    128321782
        0x00001e84:    e48e0e90    ....    DCD    3834515088
        0x00001e88:    a10e1218    ....    DCD    2702053912
        0x00001e8c:    36d20240    @..6    DCD    919732800
        0x00001e90:    08e6ba78    x...    DCD    149338744
        0x00001e94:    e5f60826    &...    DCD    3858106406
        0x00001e98:    7001641f    .d.p    DCD    1879139359
        0x00001e9c:    78c3e64a    J..x    DCD    2026104394
        0x00001ea0:    970e12be    ....    DCD    2534281918
        0x00001ea4:    0e120540    @...    DCD    236062016
        0x00001ea8:    12394092    .@9.    DCD    305741970
        0x00001eac:    0440ba0e    ..@.    DCD    71350798
        0x00001eb0:    0280fe7f    ....    DCD    42008191
        0x00001eb4:    bb78027f    ..x.    DCD    3145204351
        0x00001eb8:    b77807a6    ..x.    DCD    3078096806
        0x00001ebc:    780324e6    .$.x    DCD    2013471974
        0x00001ec0:    b778f6bd    ..x.    DCD    3078158013
        0x00001ec4:    78fd24e6    .$.x    DCD    2029855974
        0x00001ec8:    0e12f6be    ....    DCD    236123838
        0x00001ecc:    780640ba    .@.x    DCD    2013675706
        0x00001ed0:    80ffe6be    ....    DCD    2164254398
        0x00001ed4:    e6bd7804    .x..    DCD    3871176708
        0x00001ed8:    a6bc78ff    .x..    DCD    2797369599
        0x00001edc:    021f7507    .u..    DCD    35616007
        0x00001ee0:    0176b678    x.v.    DCD    24557176
        0x00001ee4:    e5590502    ..Y.    DCD    3847816450
        0x00001ee8:    6002641f    .d.`    DCD    1610769439
        0x00001eec:    39050203    ...9    DCD    956629507
        0x00001ef0:    ffe6bc78    x...    DCD    4293311608
        0x00001ef4:    12be78c3    .x..    DCD    314472643
        0x00001ef8:    0840980e    ..@.    DCD    138450958
        0x00001efc:    50920e12    ...P    DCD    1351749138
        0x00001f00:    37050203    ...7    DCD    923075075
        0x00001f04:    40ba0e12    ...@    DCD    1085935122
        0x00001f08:    80ff7f04    ....    DCD    2164227844
        0x00001f0c:    78017f02    ...x    DCD    2013363970
        0x00001f10:    7807a6bb    ...x    DCD    2013767355
        0x00001f14:    7804e6b7    ...x    DCD    2013587127
        0x00001f18:    b778f6bd    ..x.    DCD    3078158013
        0x00001f1c:    be7814e6    ..x.    DCD    3195540710
        0x00001f20:    0e1218f6    ....    DCD    236067062
        0x00001f24:    e60440bc    .@..    DCD    3859038396
        0x00001f28:    7f0280ff    ....    DCD    2130870527
        0x00001f2c:    a6bd7800    .x..    DCD    2797434880
        0x00001f30:    e608d307    ....    DCD    3859337991
        0x00001f34:    80948064    d...    DCD    2157215844
        0x00001f38:    ffe60440    @...    DCD    4293264448
        0x00001f3c:    007f0280    ....    DCD    8323712
        0x00001f40:    07a6be78    x...    DCD    128368248
        0x00001f44:    64e618c3    ...d    DCD    1692801219
        0x00001f48:    50b39480    ...P    DCD    1353946240
        0x00001f4c:    80ffe604    ....    DCD    2164254212
        0x00001f50:    78337f02    ..3x    DCD    2016640770
        0x00001f54:    c307a6bd    ....    DCD    3272058557
        0x00001f58:    8064e608    ..d.    DCD    2154096136
        0x00001f5c:    0450b394    ..P.    DCD    72397716
        0x00001f60:    0280ffe6    ....    DCD    42008550
        0x00001f64:    be78337f    .3x.    DCD    3195548543
        0x00001f68:    0e1207a6    ....    DCD    236062630
        0x00001f6c:    780640ba    .@.x    DCD    2013675706
        0x00001f70:    80ffe6be    ....    DCD    2164254398
        0x00001f74:    e6bd7804    .x..    DCD    3871176708
        0x00001f78:    a6bc78ff    .x..    DCD    2797369599
        0x00001f7c:    031f7507    .u..    DCD    52393223
        0x00001f80:    0176b678    x.v.    DCD    24557176
        0x00001f84:    1fe52080    . ..    DCD    535109760
        0x00001f88:    26700364    d.p&    DCD    644875108
        0x00001f8c:    ffe6bc78    x...    DCD    4293311608
        0x00001f90:    12be78c3    .x..    DCD    314472643
        0x00001f94:    0540980e    ..@.    DCD    88119310
        0x00001f98:    40920e12    ...@    DCD    1083313682
        0x00001f9c:    e6b77809    .x..    DCD    3870783497
        0x00001fa0:    75f6bc78    x..u    DCD    1979104376
        0x00001fa4:    bc78041f    ..x.    DCD    3161981983
        0x00001fa8:    05f075e6    .u..    DCD    99644902
        0x00001fac:    0249f5a4    ..I.    DCD    38401444
        0x00001fb0:    1fe5fd0a    ....    DCD    535166218
        0x00001fb4:    901f04b4    ....    DCD    2417951924
        0x00001fb8:    78e48d0e    ...x    DCD    2028244238
        0x00001fbc:    a10e12c1    ....    DCD    2702054081
        0x00001fc0:    36d20240    @..6    DCD    919732800
        0x00001fc4:    75051f75    u..u    DCD    1963270005
        0x00001fc8:    3575ff34    4.u5    DCD    896925492
        0x00001fcc:    5936750e    .u6Y    DCD    1496741134
        0x00001fd0:    12013775    u7..    DCD    302069621
        0x00001fd4:    ef22850d    ..".    DCD    4012016909
        0x00001fd8:    a8a4f08d    ....    DCD    2829381773
        0x00001fdc:    f08ccff0    ....    DCD    4035760112
        0x00001fe0:    8dce28a4    .(..    DCD    2379098276
        0x00001fe4:    fe2ea4f0    ....    DCD    4264469744
        0x00001fe8:    0b00bc22    "...    DCD    184597538
        0x00001fec:    ef2900be    ..).    DCD    4012441790
        0x00001ff0:    ff84f08d    ....    DCD    4286902413
        0x00001ff4:    e422f0ad    ..".    DCD    3827495085
        0x00001ff8:    f075f8cc    ..u.    DCD    4034263244
        0x00001ffc:    ff2fef08    ../.    DCD    4281331464
        0x00002000:    ecfe33ee    .3..    DCD    3976082414
        0x00002004:    9deefc33    3...    DCD    2649685043
        0x00002008:    054098ec    ..@.    DCD    88119532
        0x0000200c:    fe9deefc    ....    DCD    4271763196
        0x00002010:    e9f0d50f    ....    DCD    3924874511
        0x00002014:    22fdcee4    ..."    DCD    587058916
        0x00002018:    f0f5f8ed    ....    DCD    4042651885
        0x0000201c:    d22084ee    .. .    DCD    3525346542
        0x00002020:    f0adfe1c    ....    DCD    4037934620
        0x00002024:    ef08f075    u...    DCD    4010340469
        0x00002028:    33edff2f    /..3    DCD    871235375
        0x0000202c:    980740fd    .@..    DCD    2550612221
        0x00002030:    f0d50650    P...    DCD    4040492624
        0x00002034:    98c322f2    ."..    DCD    2562925298
        0x00002038:    f0d50ffd    ....    DCD    4040495101
        0x0000203c:    8fe822ea    ."..    DCD    2414355178
        0x00002040:    8bcca4f0    ....    DCD    2345444592
        0x00002044:    fc2ca4f0    ..,.    DCD    4230784240
        0x00002048:    a4f08ee9    ....    DCD    2767228649
        0x0000204c:    f08afc2c    ,...    DCD    4035640364
        0x00002050:    fc2ca4ed    ..,.    DCD    4230784237
        0x00002054:    a4f08eea    ....    DCD    2767228650
        0x00002058:    8bf0a8cd    ....    DCD    2347804877
        0x0000205c:    cc2da4f0    ..-.    DCD    3425543408
        0x00002060:    fdf02538    8%..    DCD    4260373816
        0x00002064:    a4f08fe9    ....    DCD    2767228905
        0x00002068:    f035cd2c    ,.5.    DCD    4030057772
        0x0000206c:    f08eebfc    ....    DCD    4035898364
        0x00002070:    f0a9fea4    ....    DCD    4037672612
        0x00002074:    a4f08feb    ....    DCD    2767228907
        0x00002078:    2ef0c5cf    ....    DCD    787531215
        0x0000207c:    e4fe39cd    .9..    DCD    3841866189
        0x00002080:    a4eafc3c    <...    DCD    2766863420
        0x00002084:    f035ce2d    -.5.    DCD    4030058029
        0x00002088:    fc3ce4fd    ..<.    DCD    4231849213
        0x0000208c:    08f07522    "u..    DCD    149976354
        0x00002090:    ef008275    u...    DCD    4009788021
        0x00002094:    33eeff2f    /..3    DCD    871300911
        0x00002098:    cd33cdfe    ..3.    DCD    3442724350
        0x0000209c:    c5cc33cc    .3..    DCD    3318494156
        0x000020a0:    82c53382    .3..    DCD    2193961858
        0x000020a4:    ec9aed9b    ....    DCD    3969576347
        0x000020a8:    9882e599    ....    DCD    2558715289
        0x000020ac:    82f50c40    @...    DCD    2197097536
        0x000020b0:    edfe9bee    ....    DCD    3992886254
        0x000020b4:    99ecfd9a    ....    DCD    2582445466
        0x000020b8:    f0d50ffc    ....    DCD    4040495100
        0x000020bc:    fbcee4d6    ....    DCD    4224640214
        0x000020c0:    e4facde4    ....    DCD    3841641956
        0x000020c4:    82a8f9cc    ....    DCD    2192112076
        0x000020c8:    c100b822    "...    DCD    3238049826
        0x000020cc:    ba5900b9    ..Y.    DCD    3126395065
        0x000020d0:    8bec2d00    .-..    DCD    2347511040
        0x000020d4:    cecf84f0    ....    DCD    3469706480
        0x000020d8:    f0e5fccd    ....    DCD    4041604301
        0x000020dc:    1878f9cb    ..x.    DCD    410581451
        0x000020e0:    eeff2fef    ./..    DCD    4009701359
        0x000020e4:    33edfe33    3..3    DCD    871235123
        0x000020e8:    fc33ecfd    ..3.    DCD    4231261437
        0x000020ec:    10fb33eb    .3..    DCD    284898283
        0x000020f0:    409903d7    ...@    DCD    1083769815
        0x000020f4:    fb99eb04    ....    DCD    4221168388
        0x000020f8:    e4e5d80f    ....    DCD    3840268303
        0x000020fc:    7822faf9    .."x    DCD    2015558393
        0x00002100:    ff2fef18    ../.    DCD    4281331480
        0x00002104:    edfe33ee    .3..    DCD    3992859630
        0x00002108:    33ecfd33    3..3    DCD    871169331
        0x0000210c:    c933c9fc    ..3.    DCD    3375614460
        0x00002110:    9b05d710    ....    DCD    2600851216
        0x00002114:    07409ae9    ..@.    DCD    121674473
        0x00002118:    e9fc9bec    ....    DCD    3925646316
        0x0000211c:    d80ff99a    ....    DCD    3624925594
        0x00002120:    fac9e4e0    ....    DCD    4207535328
        0x00002124:    22fbcce4    ..."    DCD    586927332
        0x00002128:    ef10f075    u...    DCD    4010864757
        0x0000212c:    33eeff2f    /..3    DCD    871300911
        0x00002130:    fd33edfe    ..3.    DCD    4248038910
        0x00002134:    c8cc33cc    .3..    DCD    3368825804
        0x00002138:    d710c833    3...    DCD    3608201267
        0x0000213c:    9aec9b07    ....    DCD    2599197447
        0x00002140:    0a4099e8    ..@.    DCD    172005864
        0x00002144:    ecfd9bed    ....    DCD    3976043501
        0x00002148:    99e8fc9a    ....    DCD    2582183066
        0x0000214c:    f0d50ff8    ....    DCD    4040495096
        0x00002150:    fbcde4da    ....    DCD    4224574682
        0x00002154:    e4facce4    ....    DCD    3841641700
        0x00002158:    eb22f9c8    ..".    DCD    3944937928
        0x0000215c:    eaf0f59f    ....    DCD    3941660063
        0x00002160:    e9f0429e    .B..    DCD    3924837022
        0x00002164:    e8f0429d    .B..    DCD    3908059805
        0x00002168:    22f0459c    .E."    DCD    586171804
        0x0000216c:    ef0f60e8    .`..    DCD    4010762472
        0x00002170:    eeff33c3    .3..    DCD    4009702339
        0x00002174:    33edfe33    3..3    DCD    871235123
        0x00002178:    fc33ecfd    ..3.    DCD    4231261437
        0x0000217c:    e422f1d8    ..".    DCD    3827495384
        0x00002180:    0174fc93    ..t.    DCD    24444051
        0x00002184:    0274fd93    ..t.    DCD    41221523
        0x00002188:    0374fe93    ..t.    DCD    57998995
        0x0000218c:    e622ff93    ..".    DCD    3861053331
        0x00002190:    f9e608fb    ....    DCD    4192602363
        0x00002194:    08fae608    ....    DCD    150660616
        0x00002198:    22f8cbe6    ..."    DCD    586730470
        0x0000219c:    ed08f6ec    ....    DCD    3976787692
        0x000021a0:    f6ee08f6    ....    DCD    4142794998
        0x000021a4:    22f6ef08    ..."    DCD    586608392
        0x000021a8:    f58225a4    .%..    DCD    4118947236
        0x000021ac:    35f0e582    ...5    DCD    904979842
        0x000021b0:    2283f583    ..."    DCD    579073411
        0x000021b4:    82d083d0    ....    DCD    2194703312
        0x000021b8:    7093e4f8    ...p    DCD    1888740600
        0x000021bc:    93017412    .t..    DCD    2466346002
        0x000021c0:    a3a30d70    p...    DCD    2745372016
        0x000021c4:    0174f893    ..t.    DCD    24443027
        0x000021c8:    8882f593    ....    DCD    2290283923
        0x000021cc:    7473e483    ..st    DCD    1953752195
        0x000021d0:    60689302    ..h`    DCD    1617466114
        0x000021d4:    a3a3a3ef    ....    DCD    2745410543
        0x000021d8:    3890df80    ...8    DCD    949018496
        0x000021dc:    12507804    .xP.    DCD    307263492
        0x000021e0:    38907f0c    ...8    DCD    948993804
        0x000021e4:    a3fee000    ....    DCD    2751389696
        0x000021e8:    ffedfde0    ....    DCD    4293787104
        0x000021ec:    380c12c3    ...8    DCD    940315331
        0x000021f0:    12103890    .8..    DCD    303052944
        0x000021f4:    38902c0c    .,.8    DCD    948972556
        0x000021f8:    12527806    .xR.    DCD    307394566
        0x000021fc:    38907f0c    ...8    DCD    948993804
        0x00002200:    a3fee002    ....    DCD    2751389698
        0x00002204:    ffedfde0    ....    DCD    4293787104
        0x00002208:    380c12c3    ...8    DCD    940315331
        0x0000220c:    12123890    .8..    DCD    303184016
        0x00002210:    e0a32c0c    .,..    DCD    3768790028
        0x00002214:    780731b4    .1.x    DCD    2013737396
        0x00002218:    12507950    PyP.    DCD    307263824
        0x0000221c:    3890950c    ...8    DCD    948999436
        0x00002220:    71b4e014    ...q    DCD    1907679252
        0x00002224:    e6507815    .xP.    DCD    3864033301
        0x00002228:    78e608fe    ...x    DCD    2028341502
        0x0000222c:    13c3ce02    ....    DCD    331599362
        0x00002230:    f9d813ce    ....    DCD    4191687630
        0x00002234:    eef75179    yQ..    DCD    4009185657
        0x00002238:    3890f719    ...8    DCD    949024537
        0x0000223c:    31b4e015    ...1    DCD    833937429
        0x00002240:    79527807    .xRy    DCD    2035447815
        0x00002244:    950c1252    R...    DCD    2500596306
        0x00002248:    e0153890    .8..    DCD    3759487120
        0x0000224c:    781571b4    .q.x    DCD    2014671284
        0x00002250:    08fee652    R...    DCD    150922834
        0x00002254:    ce0278e6    .x..    DCD    3456268518
        0x00002258:    13ce13c3    ....    DCD    332272579
        0x0000225c:    5379f9d8    ..yS    DCD    1400502744
        0x00002260:    f719eef7    ....    DCD    4145671927
        0x00002264:    0c125079    yP..    DCD    202526841
        0x00002268:    0c120967    g...    DCD    202508647
        0x0000226c:    1245af67    g.E.    DCD    306556775
        0x00002270:    507d1d0c    ..}P    DCD    1350376716
        0x00002274:    789c0512    ...x    DCD    2023490834
        0x00002278:    0806a658    X...    DCD    134653528
        0x0000227c:    43af07a6    ...C    DCD    1135544230
        0x00002280:    7d1d0c12    ...}    DCD    2099055634
        0x00002284:    9c051250    P...    DCD    2617578064
        0x00002288:    06a65478    xT..    DCD    111563896
        0x0000228c:    af07a608    ....    DCD    2936514056
        0x00002290:    12527846    FxR.    DCD    307394630
        0x00002294:    3c7d1f0c    ..}<    DCD    1014832908
        0x00002298:    789c0512    ...x    DCD    2023490834
        0x0000229c:    0806a65a    Z...    DCD    134653530
        0x000022a0:    44af07a6    ...D    DCD    1152321446
        0x000022a4:    5278007e    ~.xR    DCD    1383596158
        0x000022a8:    7d210c12    ..!}    DCD    2099317778
        0x000022ac:    9c05123c    <...    DCD    2617578044
        0x000022b0:    06a65678    xV..    DCD    111564408
        0x000022b4:    c307a608    ....    DCD    3272058376
        0x000022b8:    94e65978    xY..    DCD    2498124152
        0x000022bc:    94e61808    ....    DCD    2498107400
        0x000022c0:    76055000    .P.v    DCD    1980059648
        0x000022c4:    08760800    ..v.    DCD    141953024
        0x000022c8:    e65b78c3    .x[.    DCD    3864754371
        0x000022cc:    e6180894    ....    DCD    3860334740
        0x000022d0:    05500094    ..P.    DCD    89129108
        0x000022d4:    76080076    v..v    DCD    1980235894
        0x000022d8:    12587808    .xX.    DCD    307787784
        0x000022dc:    d3ff540c    .T..    DCD    3556725772
        0x000022e0:    9fe65578    xU..    DCD    2682672504
        0x000022e4:    409ee618    ...@    DCD    1084155416
        0x000022e8:    e658780e    .xX.    DCD    3864557582
        0x000022ec:    e608fe13    ....    DCD    3859349011
        0x000022f0:    0c125578    xU..    DCD    202528120
        0x000022f4:    7e04808a    ...~    DCD    2114224266
        0x000022f8:    78007f00    ...x    DCD    2013298432
        0x000022fc:    4c0c125c    \..L    DCD    1275859548
        0x00002300:    5778d3ff    ..xW    DCD    1467536383
        0x00002304:    e6189fe6    ....    DCD    3860373478
        0x00002308:    780e409e    .@.x    DCD    2014199966
        0x0000230c:    fe13e65a    Z...    DCD    4262717018
        0x00002310:    5778e608    ..xW    DCD    1467541000
        0x00002314:    808a0c12    ....    DCD    2156530706
        0x00002318:    7f007e04    .~..    DCD    2130738692
        0x0000231c:    fdfce400    ....    DCD    4261209088
        0x00002320:    07126078    x`..    DCD    118644856
        0x00002324:    1258784f    OxX.    DCD    307787855
        0x00002328:    5578540c    .TxU    DCD    1433949196
        0x0000232c:    18eeff26    &...    DCD    418316070
        0x00002330:    6478fe36    6.xd    DCD    1685650998
        0x00002334:    784c0c12    ..Lx    DCD    2018249746
        0x00002338:    eeff2657    W&..    DCD    4009698903
        0x0000233c:    e4fe3618    .6..    DCD    3841865240
        0x00002340:    6878fdfc    ..xh    DCD    1752759804
        0x00002344:    124f0712    ..O.    DCD    307169042
        0x00002348:    64785c0c    .\xd    DCD    1685609484
        0x0000234c:    d3420712    ..B.    DCD    3544319762
        0x00002350:    400e0712    ...@    DCD    1074661138
        0x00002354:    5c0c1208    ...\    DCD    1544294920
        0x00002358:    07126478    xd..    DCD    118645880
        0x0000235c:    1252784f    OxR.    DCD    307394639
        0x00002360:    68785e0c    .^xh    DCD    1752718860
        0x00002364:    d3420712    ..B.    DCD    3544319762
        0x00002368:    400e0712    ...@    DCD    1074661138
        0x0000236c:    1252780a    .xR.    DCD    307394570
        0x00002370:    68785e0c    .^xh    DCD    1752718860
        0x00002374:    e44f0712    ..O.    DCD    3830384402
        0x00002378:    125f78fd    .x_.    DCD    308246781
        0x0000237c:    0124770c    .w$.    DCD    19166988
        0x00002380:    78400c12    ..@x    DCD    2017463314
        0x00002384:    770c1263    c..w    DCD    1997279843
        0x00002388:    0c120224    $...    DCD    202506788
        0x0000238c:    12677840    @xg.    DCD    308770880
        0x00002390:    0324770c    .w$.    DCD    52721420
        0x00002394:    78400c12    ..@x    DCD    2017463314
        0x00002398:    770c126b    k..w    DCD    1997279851
        0x0000239c:    0c120424    $...    DCD    202507300
        0x000023a0:    05bd0d40    @...    DCD    96275776
        0x000023a4:    c20ec2d4    ....    DCD    3255747284
        0x000023a8:    08852206    ."..    DCD    142942726
        0x000023ac:    24309041    A.0$    DCD    607162433
        0x000023b0:    a33df5e0    ..=.    DCD    2738746848
        0x000023b4:    a33ef5e0    ..>.    DCD    2738812384
        0x000023b8:    a33ff5e0    ..?.    DCD    2738877920
        0x000023bc:    a340f5e0    ..@.    DCD    2738943456
        0x000023c0:    d23cf5e0    ..<.    DCD    3527210464
        0x000023c4:    1241e533    3.A.    DCD    306308403
        0x000023c8:    b4096707    .g..    DCD    3020515079
        0x000023cc:    04b80903    ....    DCD    79169795
        0x000023d0:    0905be09    ....    DCD    151371273
        0x000023d4:    c40906c1    ....    DCD    3288925889
        0x000023d8:    08cd0907    ....    DCD    147654919
        0x000023dc:    0912de09    ....    DCD    152231433
        0x000023e0:    e50980e0    ....    DCD    3842605280
        0x000023e4:    8f430a81    ..C.    DCD    2403535489
        0x000023e8:    0a90320a    .2..    DCD    177222154
        0x000023ec:    430a9143    C..C    DCD    1124766019
        0x000023f0:    93430a92    ..C.    DCD    2470644370
        0x000023f4:    0a94430a    .C..    DCD    177488650
        0x000023f8:    400a9843    C..@    DCD    1074436163
        0x000023fc:    0a00009f    ....    DCD    167772319
        0x00002400:    ce0e125e    ^...    DCD    3457028702
        0x00002404:    ce0e1222    "...    DCD    3457028642
        0x00002408:    d22203d2    ..".    DCD    3525444562
        0x0000240c:    03c22203    ."..    DCD    63054339
        0x00002410:    e436a222    ".6.    DCD    3828785698
        0x00002414:    023cf533    3.<.    DCD    37549363
        0x00002418:    01c2430a    .C..    DCD    29508362
        0x0000241c:    03c202c2    ....    DCD    63046338
        0x00002420:    75140d12    ...u    DCD    1964248338
        0x00002424:    34d2701e    .p.4    DCD    886206494
        0x00002428:    80430a02    ..C.    DCD    2151877122
        0x0000242c:    170f124d    M...    DCD    386863693
        0x00002430:    3d855e80    .^.=    DCD    1032150656
        0x00002434:    443e8543    C.>D    DCD    1144948035
        0x00002438:    13c345e5    .E..    DCD    331564517
        0x0000243c:    c343e5ff    ..C.    DCD    3276006911
        0x00002440:    8f02509f    .P..    DCD    2399293599
        0x00002444:    c346e543    C.F.    DCD    3276203331
        0x00002448:    44e5ff13    ...D    DCD    1155923731
        0x0000244c:    02509fc3    ..P.    DCD    38838211
        0x00002450:    45e5448f    .D.E    DCD    1172653199
        0x00002454:    fdff13c3    ....    DCD    4261352387
        0x00002458:    0e9043e5    .C..    DCD    244335589
        0x0000245c:    ea0e127f    ....    DCD    3926790783
        0x00002460:    9fee0440    @...    DCD    2683176000
        0x00002464:    46e543f5    .C.F    DCD    1189430261
        0x00002468:    fdff13c3    ....    DCD    4261352387
        0x0000246c:    0e9044e5    .D..    DCD    244335845
        0x00002470:    ea0e1280    ....    DCD    3926790784
        0x00002474:    9fee0440    @...    DCD    2683176000
        0x00002478:    071244f5    .D..    DCD    118637813
        0x0000247c:    8511808d    ....    DCD    2232516749
        0x00002480:    3f854640    @F.?    DCD    1065698880
        0x00002484:    443e8545    E.>D    DCD    1144948037
        0x00002488:    80433d85    .=C.    DCD    2151890309
        0x0000248c:    8d070203    ....    DCD    2366046723
        0x00002490:    e5243090    .0$.    DCD    3844354192
        0x00002494:    e5a3f03d    =...    DCD    3852726333
        0x00002498:    e5a3f03e    >...    DCD    3852726334
        0x0000249c:    e5a3f03f    ?...    DCD    3852726335
        0x000024a0:    e5a3f040    @...    DCD    3852726336
        0x000024a4:    3090f03c    <..0    DCD    814805052
        0x000024a8:    22f0e423    #.."    DCD    586212387
        0x000024ac:    83c0e0c0    ....    DCD    2210455744
        0x000024b0:    d0c082c0    ....    DCD    3502277312
        0x000024b4:    e00c3f90    .?..    DCD    3758899088
        0x000024b8:    32e532f5    .2.2    DCD    853881589
        0x000024bc:    304ce330    0.L0    DCD    810345264
        0x000024c0:    60903e35    5>.`    DCD    1620065845
        0x000024c4:    0af5e019    ....    DCD    183885849
        0x000024c8:    0bf5e0a3    ....    DCD    200663203
        0x000024cc:    e01d6090    .`..    DCD    3760021648
        0x000024d0:    e0a314f5    ....    DCD    3768784117
        0x000024d4:    013015f5    ..0.    DCD    19928565
        0x000024d8:    03323006    .02.    DCD    53620742
        0x000024dc:    c30180d3    ....    DCD    3271655635
        0x000024e0:    02300992    ..0.    DCD    36702610
        0x000024e4:    03323006    .02.    DCD    53620742
        0x000024e8:    c30180d3    ....    DCD    3271655635
        0x000024ec:    32300a92    ..02    DCD    842009234
        0x000024f0:    0903300c    .0..    DCD    151203852
        0x000024f4:    20060220     ..     DCD    537264672
        0x000024f8:    80d30301    ....    DCD    2161312513
        0x000024fc:    0b92c301    ....    DCD    194167553
        0x00002500:    e0013090    .0..    DCD    3758174352
        0x00002504:    e0f04044    D@..    DCD    3773841476
        0x00002508:    e5f0bf54    T...    DCD    3857760084
        0x0000250c:    14e13032    20..    DCD    350302258
        0x00002510:    90113330    03..    DCD    2417046320
        0x00002514:    f5e02230    0"..    DCD    4125106736
        0x00002518:    30f0e408    ...0    DCD    821093384
        0x0000251c:    80d30300    ....    DCD    2161312512
        0x00002520:    0892c301    ....    DCD    143835905
        0x00002524:    e53032e5    .20.    DCD    3845141221
        0x00002528:    a1569012    ..V.    DCD    2706804754
        0x0000252c:    3009f5e0    ...0    DCD    805959136
        0x00002530:    05300930    0.0.    DCD    87034160
        0x00002534:    0180d303    ....    DCD    25219843
        0x00002538:    900d92c3    ....    DCD    2416808643
        0x0000253c:    32e50c3f    ?..2    DCD    853871679
        0x00002540:    d0d0d0f0    ....    DCD    3503345904
        0x00002544:    d083d082    ....    DCD    3498299522
        0x00002548:    0e9032e0    .2..    DCD    244331232
        0x0000254c:    fe93e47d    }...    DCD    4271105149
        0x00002550:    ff930174    t...    DCD    4287824244
        0x00002554:    7b0e90c3    ...{    DCD    2064552131
        0x00002558:    9f930174    t...    DCD    2677211508
        0x0000255c:    9e93e4ff    ....    DCD    2660492543
        0x00002560:    3b8fe4fe    ...;    DCD    999286014
        0x00002564:    39f53a8e    .:.9    DCD    972372622
        0x00002568:    3bab38f5    .8.;    DCD    1001076981
        0x0000256c:    39a93aaa    .:.9    DCD    967391914
        0x00002570:    49af38a8    .8.I    DCD    1236220072
        0x00002574:    12fefdfc    ....    DCD    318701052
        0x00002578:    0e12f105    ....    DCD    236122373
        0x0000257c:    ff7be4fc    ..{.    DCD    4286309628
        0x00002580:    12f8f9fa    ....    DCD    318306810
        0x00002584:    0e127c06    .|..    DCD    236092422
        0x00002588:    690e90fc    ...i    DCD    1762562300
        0x0000258c:    110f12e4    ....    DCD    286200548
        0x00002590:    e4fc0e12    ....    DCD    3841723922
        0x00002594:    f5374885    .H7.    DCD    4114040965
        0x00002598:    f535f536    6.5.    DCD    4113954102
        0x0000259c:    ae37af34    4.7.    DCD    2922884916
        0x000025a0:    ac35ad36    6.5.    DCD    2889198902
        0x000025a4:    0f12a334    4...    DCD    252879668
        0x000025a8:    8e378f11    ..7.    DCD    2386005777
        0x000025ac:    8c358d36    6.5.    DCD    2352319798
        0x000025b0:    453be534    4.;E    DCD    1161553204
        0x000025b4:    e53bf537    7.;.    DCD    3845911863
        0x000025b8:    f536453a    :E6.    DCD    4113974586
        0x000025bc:    4539e53a    :.9E    DCD    1161422138
        0x000025c0:    e539f535    5.9.    DCD    3845780789
        0x000025c4:    f5344538    8E4.    DCD    4113843512
        0x000025c8:    22f5e438    8.."    DCD    586540088
        0x000025cc:    3b8523f5    .#.;    DCD    998581237
        0x000025d0:    303a8531    1.:0    DCD    809141553
        0x000025d4:    852f3985    .9/.    DCD    2234464645
        0x000025d8:    0d022e38    8...    DCD    218246712
        0x000025dc:    ac39adc5    ..9.    DCD    2889461189
        0x000025e0:    f8f9fa38    8...    DCD    4177132088
        0x000025e4:    8ff10512    ....    DCD    2414937362
        0x000025e8:    8d3a8e3b    ;.:.    DCD    2369424955
        0x000025ec:    ab388c39    9.8.    DCD    2872609849
        0x000025f0:    a936aa37    7.6.    DCD    2838932023
        0x000025f4:    2234a835    5.4"    DCD    573876277
        0x000025f8:    24e025ef    .%.$    DCD    618669551
        0x000025fc:    fce6f84c    L...    DCD    4242995276
        0x00002600:    22fde608    ..."    DCD    587064840
        0x00002604:    fce4ff93    ....    DCD    4242866067
        0x00002608:    0512fefd    ....    DCD    85131005
        0x0000260c:    8e378ff1    ..7.    DCD    2386006001
        0x00002610:    8c358d36    6.5.    DCD    2352319798
        0x00002614:    c3f92234    4"..    DCD    3287884340
        0x00002618:    e61897e6    ....    DCD    3860371430
        0x0000261c:    ff229719    ..".    DCD    4280456985
        0x00002620:    a60806a6    ....    DCD    2785543846
        0x00002624:    fee62207    ."..    DCD    4276494855
        0x00002628:    e4ffe608    ....    DCD    3841975816
        0x0000262c:    368e378f    .7.6    DCD    915289999
        0x00002630:    34f535f5    .5.4    DCD    888485365
        0x00002634:    08fee622    "...    DCD    150922786
        0x00002638:    8fe4ffe6    ....    DCD    2414149606
        0x0000263c:    f53a8e3b    ;.:.    DCD    4114255419
        0x00002640:    2238f539    9.8"    DCD    574158137
        0x00002644:    19ff96e7    ....    DCD    436180711
        0x00002648:    229618e7    ..."    DCD    580262119
        0x0000264c:    0806a6ff    ....    DCD    134653695
        0x00002650:    6c7807a6    ..xl    DCD    1819805606
        0x00002654:    e608fee6    ....    DCD    3859349222
        0x00002658:    e64c7822    "xL.    DCD    3863771170
        0x0000265c:    22e608fe    ..."    DCD    585500926
        0x00002660:    26efa778    x..&    DCD    653240184
        0x00002664:    36e418f6    ...6    DCD    920918262
        0x00002668:    507822f6    ."xP    DCD    1350050550
        0x0000266c:    fce6007e    ~...    DCD    4242931838
        0x00002670:    12fde608    ....    DCD    318629384
        0x00002674:    007c8a05    ..|.    DCD    8161797
        0x00002678:    e0a3e022    "...    DCD    3768836130
        0x0000267c:    a402f075    u...    DCD    2751656053
        0x00002680:    c3f0aeff    ....    DCD    3287330559
        0x00002684:    f69fe608    ....    DCD    4137674248
        0x00002688:    f69ee618    ....    DCD    4137608728
        0x0000268c:    f0e5ff22    "...    DCD    4041604898
        0x00002690:    828f6034    4`..    DCD    2190434356
        0x00002694:    f0ec83f5    ....    DCD    4042032117
        0x00002698:    fdfce422    "...    DCD    4261209122
        0x0000269c:    784f0712    ..Ox    DCD    2018445074
        0x000026a0:    13c3e65a    Z...    DCD    331605594
        0x000026a4:    13e608fe    ....    DCD    333842686
        0x000026a8:    e6507822    "xP.    DCD    3864033314
        0x000026ac:    ffe608fe    ....    DCD    4293265662
        0x000026b0:    22fdfce4    ..."    DCD    587070692
        0x000026b4:    54f8c4e7    ...T    DCD    1425589479
        0x000026b8:    f768c8f0    ..h.    DCD    4150839536
        0x000026bc:    54c4e709    ...T    DCD    1422190345
        0x000026c0:    22f7480f    .H."    DCD    586631183
        0x000026c4:    75edfce6    ...u    DCD    1978531046
        0x000026c8:    22a404f0    ..."    DCD    581174512
        0x000026cc:    e0a3fee0    ....    DCD    3768844000
        0x000026d0:    edf6eefd    ....    DCD    3992383229
        0x000026d4:    1322f608    ..".    DCD    321058312
        0x000026d8:    9fe6c3ff    ....    DCD    2682700799
        0x000026dc:    9ee618ff    ....    DCD    2665879807
        0x000026e0:    c3e622fe    ."..    DCD    3286639358
        0x000026e4:    e608f713    ....    DCD    3859347219
        0x000026e8:    22f70913    ..."    DCD    586615059
        0x000026ec:    75038975    u..u    DCD    1963166069
        0x000026f0:    b87501a8    ..u.    DCD    3094675880
        0x000026f4:    ff347504    .u4.    DCD    4281627908
        0x000026f8:    750e3575    u5.u    DCD    1963865461
        0x000026fc:    37751536    6.u7    DCD    930420022
        0x00002700:    850d120d    ....    DCD    2232226317
        0x00002704:    12090012    ....    DCD    302579730
        0x00002708:    0012170f    ....    DCD    1185551
        0x0000270c:    d200d206    ....    DCD    3523269126
        0x00002710:    75afd233    3..u    DCD    1974456883
        0x00002714:    3575ff34    4.u5    DCD    896925492
        0x00002718:    4936750e    .u6I    DCD    1228305678
        0x0000271c:    12033775    u7..    DCD    302200693
        0x00002720:    0830850d    ..0.    DCD    137397517
        0x00002724:    1233c209    ..3.    DCD    305381897
        0x00002728:    08c25d09    .]..    DCD    146955529
        0x0000272c:    0b3033d2    .30.    DCD    187708370
        0x00002730:    1235c209    ..5.    DCD    305512969
        0x00002734:    0bc20e00    ....    DCD    197266944
        0x00002738:    093035d2    .50.    DCD    154154450
        0x0000273c:    1235c209    ..5.    DCD    305512969
        0x00002740:    09c20a03    ....    DCD    163711491
        0x00002744:    0e3035d2    .50.    DCD    238040530
        0x00002748:    8d071203    ....    DCD    2366050819
        0x0000274c:    90d33430    04..    DCD    2429760560
        0x00002750:    1ee52930    0)..    DCD    518334768
        0x00002754:    0510b4f0    ....    DCD    84980976
        0x00002758:    e4233090    .0#.    DCD    3827511440
        0x0000275c:    8034c2f0    ..4.    DCD    2150941424
        0x00002760:    49f5e4c1    ...I    DCD    1240851649
        0x00002764:    93770e90    ..w.    DCD    2474053264
        0x00002768:    378fe4ff    ...7    DCD    932177151
        0x0000276c:    35f536f5    .6.5    DCD    905262837
        0x00002770:    37af34f5    .4.7    DCD    934229237
        0x00002774:    35ad36ae    .6.5    DCD    900544174
        0x00002778:    0e9034ac    .4..    DCD    244331692
        0x0000277c:    110f126a    j...    DCD    286200426
        0x00002780:    368e378f    .7.6    DCD    915289999
        0x00002784:    348c358d    .5.4    DCD    881603981
        0x00002788:    12720e90    ..r.    DCD    309464720
        0x0000278c:    45ef3207    .2.E    DCD    1173303815
        0x00002790:    ee37f537    7.7.    DCD    3996644663
        0x00002794:    36f53645    E6.6    DCD    922039877
        0x00002798:    f53545ed    .E5.    DCD    4113909229
        0x0000279c:    3445ec35    5.E4    DCD    876997685
        0x000027a0:    f5e434f5    .4..    DCD    4125373685
        0x000027a4:    8523f522    ".#.    DCD    2233726242
        0x000027a8:    36853137    71.6    DCD    914698551
        0x000027ac:    2f358530    0.5/    DCD    792036656
        0x000027b0:    122e3485    .4..    DCD    305017989
        0x000027b4:    f5e4c50d    ....    DCD    4125410573
        0x000027b8:    9023f522    ".#.    DCD    2418275618
        0x000027bc:    0f12720e    .r..    DCD    252867086
        0x000027c0:    c50d1205    ....    DCD    3305968133
        0x000027c4:    f522f5e4    ..".    DCD    4112709092
        0x000027c8:    6e0e9023    #..n    DCD    1846448163
        0x000027cc:    02050f12    ....    DCD    33885970
        0x000027d0:    35aec50d    ...5    DCD    900646157
        0x000027d4:    fde436af    .6..    DCD    4259591855
        0x000027d8:    3795c3ed    ...7    DCD    932561901
        0x000027dc:    0f123350    P3..    DCD    252851024
        0x000027e0:    f593e452    R...    DCD    4120110162
        0x000027e4:    93017438    8t..    DCD    2466346040
        0x000027e8:    384539f5    .9E8    DCD    944060917
        0x000027ec:    39852360    `#.9    DCD    965026656
        0x000027f0:    83388582    ..8.    DCD    2201519490
        0x000027f4:    0f12fce0    ....    DCD    252902624
        0x000027f8:    93037452    Rt..    DCD    2466477138
        0x000027fc:    0f120452    R...    DCD    252838994
        0x00002800:    93027452    Rt..    DCD    2466411602
        0x00002804:    39850442    B..9    DCD    965018690
        0x00002808:    83388582    ..8.    DCD    2201519490
        0x0000280c:    800df0ec    ....    DCD    2148397292
        0x00002810:    afa222c7    ."..    DCD    2946638535
        0x00002814:    afc23192    .1..    DCD    2948739474
        0x00002818:    224523e5    .#E"    DCD    574956517
        0x0000281c:    605d0e90    ..]`    DCD    1616711312
        0x00002820:    470f120b    ...G    DCD    1192169995
        0x00002824:    e02cf5e0    ..,.    DCD    3761042912
        0x00002828:    0f802df5    .-..    DCD    260058613
        0x0000282c:    e5470f12    ..G.    DCD    3846639378
        0x00002830:    0e90f030    0...    DCD    244379696
        0x00002834:    470f125f    _..G    DCD    1192170079
        0x00002838:    a2f031e5    .1..    DCD    2733650405
        0x0000283c:    22af9231    1.."    DCD    581931569
        0x00002840:    f6e47f78    x...    DCD    4142169976
        0x00002844:    8175fdd8    ..u.    DCD    2171993560
        0x00002848:    9f0c02cb    ....    DCD    2668364491
        0x0000284c:    25051100    ...%    DCD    621089024
        0x00002850:    50023316    .3.P    DCD    1342321430
        0x00002854:    69666f72    rofi    DCD    1768320882
        0x00002858:    14202074    t  .    DCD    337649780
        0x0000285c:    56001000    ...V    DCD    1442844672
        0x00002860:    29301a40    @.0)    DCD    691018304
        0x00002864:    0430007e    ~.0.    DCD    70254718
        0x00002868:    0530df20     .0.    DCD    87088928
        0x0000286c:    0350bf40    @.P.    DCD    55623488
        0x00002870:    2750fd00    ..P'    DCD    659619072
        0x00002874:    0060fe01    ..`.    DCD    6356481
        0x00002878:    053f0011    ..?.    DCD    88014865
        0x0000287c:    063f0030    0.?.    DCD    104792112
        0x00002880:    013f0022    ".?.    DCD    20906018
        0x00002884:    023f002a    *.?.    DCD    37683242
        0x00002888:    06360000    ..6.    DCD    104202240
        0x0000288c:    0b3f0007    ..?.    DCD    188678151
        0x00002890:    0000f00f    ....    DCD    61455
        0x00002894:    01300000    ..0.    DCD    19922944
        0x00002898:    0130bf40    @.0.    DCD    19971904
        0x0000289c:    2930bf00    ..0)    DCD    691060480
        0x000028a0:    003a0070    p.:.    DCD    3801200
        0x000028a4:    003aff00    ..:.    DCD    3866368
        0x000028a8:    0336ff00    ..6.    DCD    53935872
        0x000028ac:    44410236    6.AD    DCD    1145111094
        0x000028b0:    10182058    X ..    DCD    270016600
        0x000028b4:    0004040a    ....    DCD    263178
        0x000028b8:    0064ff03    ..d.    DCD    6618883
        0x000028bc:    00008000    ....    DCD    32768
        0x000028c0:    00000000    ....    DCD    0
        0x000028c4:    00060402    ....    DCD    394242
        0x000028c8:    cc009803    ....    DCD    3422590979
        0x000028cc:    1e283c50    P<(.    DCD    505953360
        0x000028d0:    00000c0c    ....    DCD    3084
        0x000028d4:    04100c10    ....    DCD    68160528
        0x000028d8:    05066e0c    .n..    DCD    84307468
        0x000028dc:    785aa500    ..Zx    DCD    2019206400
        0x000028e0:    08d3e6bc    ....    DCD    148104892
        0x000028e4:    8064e6ff    ..d.    DCD    2154096383
        0x000028e8:    8064eff8    ..d.    DCD    2154098680
        0x000028ec:    ff932298    ."..    DCD    4287832728
        0x000028f0:    fce6007e    ~...    DCD    4242931838
        0x000028f4:    12fde608    ....    DCD    318629384
        0x000028f8:    bf788a05    ..x.    DCD    3212347909
        0x000028fc:    e608fce6    ....    DCD    3859348710
        0x00002900:    9defd3fd    ....    DCD    2649740285
        0x00002904:    78229cee    .."x    DCD    2015534318
        0x00002908:    64e6d3bb    ...d    DCD    1692849083
        0x0000290c:    22809480    ..."    DCD    578851968
        0x00002910:    0a24e025    %.$.    DCD    170188837
        0x00002914:    08fee6f8    ....    DCD    150923000
        0x00002918:    d222ffe6    ..".    DCD    3525509094
        0x0000291c:    e402c201    ....    DCD    3825385985
        0x00002920:    1ef51ff5    ....    DCD    519380981
        0x00002924:    32d234d2    .4.2    DCD    852636882
        0x00002928:    01d235d2    .5..    DCD    30553554
        0x0000292c:    1ff502c2    ....    DCD    536150722
        0x00002930:    34d21ef5    ...4    DCD    886185717
        0x00002934:    2d2232d2    .2"-    DCD    757215954
        0x00002938:    fc33e4fd    ..3.    DCD    4231259389
        0x0000293c:    fbfe93e4    ....    DCD    4227765220
        0x00002940:    749bedd3    ...t    DCD    1956376019
        0x00002944:    986cf880    ..l.    DCD    2557278336
        0x00002948:    8e3b8f22    ".;.    DCD    2386267938
        0x0000294c:    8c398d3a    :.9.    DCD    2352581946
        0x00002950:    07122238    8"..    DCD    118628920
        0x00002954:    8e318f32    2.1.    DCD    2385612594
        0x00002958:    8c2f8d30    0./.    DCD    2351926576
        0x0000295c:    f993222e    ."..    DCD    4187169326
        0x00002960:    1f0702f8    ....    DCD    520553208
        0x00002964:    12810e90    ....    DCD    310447760
        0x00002968:    468f3207    .2.F    DCD    1183789575
        0x0000296c:    448d458e    .E.D    DCD    1150109070
        0x00002970:    06d2438c    .C..    DCD    114443148
        0x00002974:    d3030630    0...    DCD    3540190768
        0x00002978:    92c30180    ....    DCD    2462253440
        0x0000297c:    e0c0220e    ."..    DCD    3770688014
        0x00002980:    82c083c0    ....    DCD    2193654720
        0x00002984:    e00d3f90    .?..    DCD    3758964624
        0x00002988:    33e533f5    .3.3    DCD    870659061
        0x0000298c:    d082d0f0    ....    DCD    3498234096
        0x00002990:    32e0d083    ...2    DCD    853594243
        0x00002994:    74fe93e4    ...t    DCD    1962841060
        0x00002998:    82f59301    ....    DCD    2197132033
        0x0000299c:    8f22838e    ..".    DCD    2401403790
        0x000029a0:    75838e82    ...u    DCD    1971555970
        0x000029a4:    02ed04f0    ....    DCD    49087728
        0x000029a8:    5b07        .[      DCW    23303
    OV5640_LIGHTMODE_TBL
        0x000029aa:    0400        ..      DCW    1024
        0x000029ac:    04000400    ....    DCD    67109888
        0x000029b0:    00          .       DCB    0
    OV5640_SATURATION_TBL
        0x000029b1:    1a6680      .f.     DCB    26,102,128
        0x000029b4:    8082        ..      DCW    32898
        0x000029b6:    02          .       DCB    2
    RGB565_QVGA
        0x000029b7:    32          2       DCB    50
        0x000029b8:    08380312    ..8.    DCD    137888530
        0x000029bc:    40093801    .8.@    DCD    1074345985
        0x000029c0:    38000a38    8..8    DCD    939526712
        0x000029c4:    1038f00b    ..8.    DCD    272166923
        0x000029c8:    10113800    .8..    DCD    269563904
        0x000029cc:    38001238    8..8    DCD    939528760
        0x000029d0:    12320413    ..2.    DCD    305267731
        0x000029d4:    a3123213    .2..    DCD    2735878675
        0x000029d8:    00000000    ....    DCD    0
    Region$$Table$$Base
        0x000029dc:    000029fc    .)..    DCD    10748
        0x000029e0:    20000000    ...     DCD    536870912
        0x000029e4:    0000000c    ....    DCD    12
        0x000029e8:    00001628    (...    DCD    5672
        0x000029ec:    00002a08    .*..    DCD    10760
        0x000029f0:    2000000c    ...     DCD    536870924
        0x000029f4:    00008004    ....    DCD    32772
        0x000029f8:    00001638    8...    DCD    5688
    Region$$Table$$Limit

====================================

** Section #2

    Name        : RW_IRAM1
    Type        : SHT_PROGBITS (0x00000001)
    Flags       : SHF_ALLOC + SHF_WRITE (0x00000003)
    Addr        : 0x20000000
    File Offset : 10800 (0x2a30)
    Size        : 12 bytes (0xc)
    Link        : SHN_UNDEF
    Info        : 0
    Alignment   : 4
    Entry Size  : 0


====================================

** Section #3

    Name        : RW_IRAM1
    Type        : SHT_NOBITS (0x00000008)
    Flags       : SHF_ALLOC + SHF_WRITE (0x00000003)
    Addr        : 0x2000000c
    File Offset : 10812 (0x2a3c)
    Size        : 32772 bytes (0x8004)
    Link        : SHN_UNDEF
    Info        : 0
    Alignment   : 8
    Entry Size  : 0


====================================

** Section #4

    Name        : .debug_abbrev
    Type        : SHT_PROGBITS (0x00000001)
    Flags       : None (0x00000000)
    Addr        : 0x00000000
    File Offset : 10812 (0x2a3c)
    Size        : 1476 bytes (0x5c4)
    Link        : SHN_UNDEF
    Info        : 0
    Alignment   : 1
    Entry Size  : 0


====================================

** Section #5

    Name        : .debug_frame
    Type        : SHT_PROGBITS (0x00000001)
    Flags       : None (0x00000000)
    Addr        : 0x00000000
    File Offset : 12288 (0x3000)
    Size        : 2684 bytes (0xa7c)
    Link        : SHN_UNDEF
    Info        : 0
    Alignment   : 1
    Entry Size  : 0


====================================

** Section #6

    Name        : .debug_info
    Type        : SHT_PROGBITS (0x00000001)
    Flags       : None (0x00000000)
    Addr        : 0x00000000
    File Offset : 14972 (0x3a7c)
    Size        : 33100 bytes (0x814c)
    Link        : SHN_UNDEF
    Info        : 0
    Alignment   : 1
    Entry Size  : 0


====================================

** Section #7

    Name        : .debug_line
    Type        : SHT_PROGBITS (0x00000001)
    Flags       : None (0x00000000)
    Addr        : 0x00000000
    File Offset : 48072 (0xbbc8)
    Size        : 12204 bytes (0x2fac)
    Link        : SHN_UNDEF
    Info        : 0
    Alignment   : 1
    Entry Size  : 0


====================================

** Section #8

    Name        : .debug_loc
    Type        : SHT_PROGBITS (0x00000001)
    Flags       : None (0x00000000)
    Addr        : 0x00000000
    File Offset : 60276 (0xeb74)
    Size        : 3604 bytes (0xe14)
    Link        : SHN_UNDEF
    Info        : 0
    Alignment   : 1
    Entry Size  : 0


====================================

** Section #9

    Name        : .debug_macinfo
    Type        : SHT_PROGBITS (0x00000001)
    Flags       : None (0x00000000)
    Addr        : 0x00000000
    File Offset : 63880 (0xf988)
    Size        : 31228 bytes (0x79fc)
    Link        : SHN_UNDEF
    Info        : 0
    Alignment   : 1
    Entry Size  : 0


====================================

** Section #10

    Name        : .debug_pubnames
    Type        : SHT_PROGBITS (0x00000001)
    Flags       : None (0x00000000)
    Addr        : 0x00000000
    File Offset : 95108 (0x17384)
    Size        : 3738 bytes (0xe9a)
    Link        : SHN_UNDEF
    Info        : 0
    Alignment   : 1
    Entry Size  : 0


====================================

** Section #11

    Name        : .symtab
    Type        : SHT_SYMTAB (0x00000002)
    Flags       : None (0x00000000)
    Addr        : 0x00000000
    File Offset : 98848 (0x18220)
    Size        : 6928 bytes (0x1b10)
    Link        : Section 12 (.strtab)
    Info        : Last local symbol no = 289
    Alignment   : 4
    Entry Size  : 16


====================================

** Section #12

    Name        : .strtab
    Type        : SHT_STRTAB (0x00000003)
    Flags       : None (0x00000000)
    Addr        : 0x00000000
    File Offset : 105776 (0x19d30)
    Size        : 5444 bytes (0x1544)
    Link        : SHN_UNDEF
    Info        : 0
    Alignment   : 1
    Entry Size  : 0


====================================

** Section #13

    Name        : .note
    Type        : SHT_NOTE (0x00000007)
    Flags       : None (0x00000000)
    Addr        : 0x00000000
    File Offset : 111220 (0x1b274)
    Size        : 28 bytes (0x1c)
    Link        : SHN_UNDEF
    Info        : 0
    Alignment   : 4
    Entry Size  : 0

        Section     Segment
    ====================================

              1           0
              2           0
              3           0

====================================

** Section #14

    Name        : .comment
    Type        : SHT_PROGBITS (0x00000001)
    Flags       : None (0x00000000)
    Addr        : 0x00000000
    File Offset : 111248 (0x1b290)
    Size        : 15552 bytes (0x3cc0)
    Link        : SHN_UNDEF
    Info        : 0
    Alignment   : 1
    Entry Size  : 0

    Component: ARM Compiler 5.06 update 6 (build 750) Tool: armlink [4d35ed]
    ArmLink --strict --library_type=microlib --callgraph --load_addr_map_info --map --symbols --xref --diag_suppress=9931 --cpu=Cortex-M3 --list=.\Listings\soc.map --output=.\soc.axf --scatter=.\soc.sct --info=summarysizes,sizes,totals,unused,veneers

    D:\Program Files\Keil\Keil_v5\ARM\ARMCC\Bin\..\lib\armlib\h_w.l
    D:\Program Files\Keil\Keil_v5\ARM\ARMCC\Bin\..\lib\armlib\m_ws.l
    D:\Program Files\Keil\Keil_v5\ARM\ARMCC\Bin\..\lib\armlib\mc_w.l
    D:\Program Files\Keil\Keil_v5\ARM\ARMCC\Bin\..\lib\armlib\mf_w.l
    D:\Program Files\Keil\Keil_v5\ARM\ARMCC\Bin\..\lib\armlib\vfpsupport.l
    Input Comments:
    
    acc.o
    
    Component: ARM Compiler 5.06 update 6 (build 750) Tool: armlink [4d35ed]
    armlink --partial --no_add_relocs_to_undefined --no_generate_mapping_symbols --diag_suppress=9931,9931,6642 --cpu=Cortex-M3 --fpu=SoftVFP --output=.\acc.o --vfemode=force

    Input Comments:
    
    p7d4-3
    
    Component: ARM Compiler 5.06 update 6 (build 750) Tool: armasm [4d35ec]
    armasm --debug --diag_suppress=9931,9931,1602,1073 --cpu=Cortex-M3 --fpu=SoftVFP --apcs=/interwork/interwork --divide 
    acc.o
    
    Component: ARM Compiler 5.06 update 6 (build 750) Tool: ArmCC [4d3637]
    ArmCC --c99 --split_sections --debug -c --gnu -o.\acc.o --depend=.\acc.d --cpu=Cortex-M3 --apcs=interwork -O0 --diag_suppress=9931 -I.\RTE\_Target_1 -I"D:\Program Files\Keil\Keil_v5\Arm\Packs\Keil\V2M-MPS2_CMx_BSP\1.7.0\Device\CMSDK_CM3\Include" -I"D:\Program Files\Keil\Keil_v5\ARM\CMSIS\Include" -D__MICROLIB -D__UVISION_VERSION=529 -DCMSDK_CM3 --omf_browse=.\acc.crf ..\Software\with_camera\acc.c
    
    
    camera.o
    
    Component: ARM Compiler 5.06 update 6 (build 750) Tool: armlink [4d35ed]
    armlink --partial --no_add_relocs_to_undefined --no_generate_mapping_symbols --diag_suppress=9931,9931,6642 --cpu=Cortex-M3 --fpu=SoftVFP --output=.\camera.o --vfemode=force

    Input Comments:
    
    p694-3
    
    Component: ARM Compiler 5.06 update 6 (build 750) Tool: armasm [4d35ec]
    armasm --debug --diag_suppress=9931,9931,1602,1073 --cpu=Cortex-M3 --fpu=SoftVFP --apcs=/interwork/interwork --divide 
    camera.o
    
    Component: ARM Compiler 5.06 update 6 (build 750) Tool: ArmCC [4d3637]
    ArmCC --c99 --split_sections --debug -c --gnu -o.\camera.o --depend=.\camera.d --cpu=Cortex-M3 --apcs=interwork -O0 --diag_suppress=9931 -I.\RTE\_Target_1 -I"D:\Program Files\Keil\Keil_v5\Arm\Packs\Keil\V2M-MPS2_CMx_BSP\1.7.0\Device\CMSDK_CM3\Include" -I"D:\Program Files\Keil\Keil_v5\ARM\CMSIS\Include" -D__MICROLIB -D__UVISION_VERSION=529 -DCMSDK_CM3 --omf_browse=.\camera.crf ..\Software\with_camera\camera.c
    
    
    
    
    dma.o
    
    Component: ARM Compiler 5.06 update 6 (build 750) Tool: armlink [4d35ed]
    armlink --partial --no_add_relocs_to_undefined --no_generate_mapping_symbols --diag_suppress=9931,9931,6642 --cpu=Cortex-M3 --fpu=SoftVFP --output=.\dma.o --vfemode=force

    Input Comments:
    
    p2e44-3
    
    Component: ARM Compiler 5.06 update 6 (build 750) Tool: armasm [4d35ec]
    armasm --debug --diag_suppress=9931,9931,1602,1073 --cpu=Cortex-M3 --fpu=SoftVFP --apcs=/interwork/interwork --divide 
    dma.o
    
    Component: ARM Compiler 5.06 update 6 (build 750) Tool: ArmCC [4d3637]
    ArmCC --c99 --split_sections --debug -c --gnu -o.\dma.o --depend=.\dma.d --cpu=Cortex-M3 --apcs=interwork -O0 --diag_suppress=9931 -I.\RTE\_Target_1 -I"D:\Program Files\Keil\Keil_v5\Arm\Packs\Keil\V2M-MPS2_CMx_BSP\1.7.0\Device\CMSDK_CM3\Include" -I"D:\Program Files\Keil\Keil_v5\ARM\CMSIS\Include" -D__MICROLIB -D__UVISION_VERSION=529 -DCMSDK_CM3 --omf_browse=.\dma.crf ..\Software\with_camera\dma.c
    
    
    
    
    
    gpio.o
    
    Component: ARM Compiler 5.06 update 6 (build 750) Tool: armlink [4d35ed]
    armlink --partial --no_add_relocs_to_undefined --no_generate_mapping_symbols --diag_suppress=9931,9931,6642 --cpu=Cortex-M3 --fpu=SoftVFP --output=.\gpio.o --vfemode=force

    Input Comments:
    
    p2e68-3
    
    Component: ARM Compiler 5.06 update 6 (build 750) Tool: armasm [4d35ec]
    armasm --debug --diag_suppress=9931,9931,1602,1073 --cpu=Cortex-M3 --fpu=SoftVFP --apcs=/interwork/interwork --divide 
    gpio.o
    
    Component: ARM Compiler 5.06 update 6 (build 750) Tool: ArmCC [4d3637]
    ArmCC --c99 --split_sections --debug -c --gnu -o.\gpio.o --depend=.\gpio.d --cpu=Cortex-M3 --apcs=interwork -O0 --diag_suppress=9931 -I.\RTE\_Target_1 -I"D:\Program Files\Keil\Keil_v5\Arm\Packs\Keil\V2M-MPS2_CMx_BSP\1.7.0\Device\CMSDK_CM3\Include" -I"D:\Program Files\Keil\Keil_v5\ARM\CMSIS\Include" -D__MICROLIB -D__UVISION_VERSION=529 -DCMSDK_CM3 --omf_browse=.\gpio.crf ..\Software\with_camera\gpio.c
    
    
    
    handler.o
    
    Component: ARM Compiler 5.06 update 6 (build 750) Tool: armlink [4d35ed]
    armlink --partial --no_add_relocs_to_undefined --no_generate_mapping_symbols --diag_suppress=9931,9931,6642 --cpu=Cortex-M3 --fpu=SoftVFP --output=.\handler.o --vfemode=force

    Input Comments:
    
    pb48-3
    
    Component: ARM Compiler 5.06 update 6 (build 750) Tool: armasm [4d35ec]
    armasm --debug --diag_suppress=9931,9931,1602,1073 --cpu=Cortex-M3 --fpu=SoftVFP --apcs=/interwork/interwork --divide 
    handler.o
    
    Component: ARM Compiler 5.06 update 6 (build 750) Tool: ArmCC [4d3637]
    ArmCC --c99 --split_sections --debug -c --gnu -o.\handler.o --depend=.\handler.d --cpu=Cortex-M3 --apcs=interwork -O0 --diag_suppress=9931 -I.\RTE\_Target_1 -I"D:\Program Files\Keil\Keil_v5\Arm\Packs\Keil\V2M-MPS2_CMx_BSP\1.7.0\Device\CMSDK_CM3\Include" -I"D:\Program Files\Keil\Keil_v5\ARM\CMSIS\Include" -D__MICROLIB -D__UVISION_VERSION=529 -DCMSDK_CM3 --omf_browse=.\handler.crf ..\Software\with_camera\handler.c
    
    
    keyboard.o
    
    Component: ARM Compiler 5.06 update 6 (build 750) Tool: armlink [4d35ed]
    armlink --partial --no_add_relocs_to_undefined --no_generate_mapping_symbols --diag_suppress=9931,9931,6642 --cpu=Cortex-M3 --fpu=SoftVFP --output=.\keyboard.o --vfemode=force

    Input Comments:
    
    p4a70-3
    
    Component: ARM Compiler 5.06 update 6 (build 750) Tool: armasm [4d35ec]
    armasm --debug --diag_suppress=9931,9931,1602,1073 --cpu=Cortex-M3 --fpu=SoftVFP --apcs=/interwork/interwork --divide 
    keyboard.o
    
    Component: ARM Compiler 5.06 update 6 (build 750) Tool: ArmCC [4d3637]
    ArmCC --c99 --split_sections --debug -c --gnu -o.\keyboard.o --depend=.\keyboard.d --cpu=Cortex-M3 --apcs=interwork -O0 --diag_suppress=9931 -I.\RTE\_Target_1 -I"D:\Program Files\Keil\Keil_v5\Arm\Packs\Keil\V2M-MPS2_CMx_BSP\1.7.0\Device\CMSDK_CM3\Include" -I"D:\Program Files\Keil\Keil_v5\ARM\CMSIS\Include" -D__MICROLIB -D__UVISION_VERSION=529 -DCMSDK_CM3 --omf_browse=.\keyboard.crf ..\Software\with_camera\keyboard.c
    
    
    
    lcd.o
    
    Component: ARM Compiler 5.06 update 6 (build 750) Tool: armlink [4d35ed]
    armlink --partial --no_add_relocs_to_undefined --no_generate_mapping_symbols --diag_suppress=9931,9931,6642 --cpu=Cortex-M3 --fpu=SoftVFP --output=.\lcd.o --vfemode=force

    Input Comments:
    
    p3c94-3
    
    Component: ARM Compiler 5.06 update 6 (build 750) Tool: armasm [4d35ec]
    armasm --debug --diag_suppress=9931,9931,1602,1073 --cpu=Cortex-M3 --fpu=SoftVFP --apcs=/interwork/interwork --divide 
    lcd.o
    
    Component: ARM Compiler 5.06 update 6 (build 750) Tool: ArmCC [4d3637]
    ArmCC --c99 --split_sections --debug -c --gnu -o.\lcd.o --depend=.\lcd.d --cpu=Cortex-M3 --apcs=interwork -O0 --diag_suppress=9931 -I.\RTE\_Target_1 -I"D:\Program Files\Keil\Keil_v5\Arm\Packs\Keil\V2M-MPS2_CMx_BSP\1.7.0\Device\CMSDK_CM3\Include" -I"D:\Program Files\Keil\Keil_v5\ARM\CMSIS\Include" -D__MICROLIB -D__UVISION_VERSION=529 -DCMSDK_CM3 --omf_browse=.\lcd.crf ..\Software\with_camera\lcd.c
    
    
    
    
    
    main.o
    
    Component: ARM Compiler 5.06 update 6 (build 750) Tool: armlink [4d35ed]
    armlink --partial --no_add_relocs_to_undefined --no_generate_mapping_symbols --diag_suppress=9931,9931,6642 --cpu=Cortex-M3 --fpu=SoftVFP --output=.\main.o --vfemode=force

    Input Comments:
    
    p2a54-3
    
    Component: ARM Compiler 5.06 update 6 (build 750) Tool: armasm [4d35ec]
    armasm --debug --diag_suppress=9931,9931,1602,1073 --cpu=Cortex-M3 --fpu=SoftVFP --apcs=/interwork/interwork --divide 
    main.o
    
    Component: ARM Compiler 5.06 update 6 (build 750) Tool: ArmCC [4d3637]
    ArmCC --c99 --split_sections --debug -c --gnu -o.\main.o --depend=.\main.d --cpu=Cortex-M3 --apcs=interwork -O0 --diag_suppress=9931 -I.\RTE\_Target_1 -I"D:\Program Files\Keil\Keil_v5\Arm\Packs\Keil\V2M-MPS2_CMx_BSP\1.7.0\Device\CMSDK_CM3\Include" -I"D:\Program Files\Keil\Keil_v5\ARM\CMSIS\Include" -D__MICROLIB -D__UVISION_VERSION=529 -DCMSDK_CM3 --omf_browse=.\main.crf ..\Software\with_camera\main.c
    
    
    
    resizer.o
    
    Component: ARM Compiler 5.06 update 6 (build 750) Tool: armlink [4d35ed]
    armlink --partial --no_add_relocs_to_undefined --no_generate_mapping_symbols --diag_suppress=9931,9931,6642 --cpu=Cortex-M3 --fpu=SoftVFP --output=.\resizer.o --vfemode=force

    Input Comments:
    
    p3804-3
    
    Component: ARM Compiler 5.06 update 6 (build 750) Tool: armasm [4d35ec]
    armasm --debug --diag_suppress=9931,9931,1602,1073 --cpu=Cortex-M3 --fpu=SoftVFP --apcs=/interwork/interwork --divide 
    resizer.o
    
    Component: ARM Compiler 5.06 update 6 (build 750) Tool: ArmCC [4d3637]
    ArmCC --c99 --split_sections --debug -c --gnu -o.\resizer.o --depend=.\resizer.d --cpu=Cortex-M3 --apcs=interwork -O0 --diag_suppress=9931 -I.\RTE\_Target_1 -I"D:\Program Files\Keil\Keil_v5\Arm\Packs\Keil\V2M-MPS2_CMx_BSP\1.7.0\Device\CMSDK_CM3\Include" -I"D:\Program Files\Keil\Keil_v5\ARM\CMSIS\Include" -D__MICROLIB -D__UVISION_VERSION=529 -DCMSDK_CM3 --omf_browse=.\resizer.crf ..\Software\with_camera\resizer.c
    
    
    
    
    
    retarget.o
    
    Component: ARM Compiler 5.06 update 6 (build 750) Tool: armlink [4d35ed]
    armlink --partial --no_add_relocs_to_undefined --no_generate_mapping_symbols --diag_suppress=9931,9931,6642 --cpu=Cortex-M3 --fpu=SoftVFP --output=.\retarget.o --vfemode=force

    Input Comments:
    
    p4488-3
    
    Component: ARM Compiler 5.06 update 6 (build 750) Tool: armasm [4d35ec]
    armasm --debug --diag_suppress=9931,9931,1602,1073 --cpu=Cortex-M3 --fpu=SoftVFP --apcs=/interwork/interwork --divide 
    retarget.o
    
    Component: ARM Compiler 5.06 update 6 (build 750) Tool: ArmCC [4d3637]
    ArmCC --c99 --split_sections --debug -c --gnu -o.\retarget.o --depend=.\retarget.d --cpu=Cortex-M3 --apcs=interwork -O0 --diag_suppress=9931 -I.\RTE\_Target_1 -I"D:\Program Files\Keil\Keil_v5\Arm\Packs\Keil\V2M-MPS2_CMx_BSP\1.7.0\Device\CMSDK_CM3\Include" -I"D:\Program Files\Keil\Keil_v5\ARM\CMSIS\Include" -D__MICROLIB -D__UVISION_VERSION=529 -DCMSDK_CM3 --omf_browse=.\retarget.crf ..\Software\with_camera\Retarget.c
    
    
    
    startup_cm3ds.o
    
    Component: ARM Compiler 5.06 update 6 (build 750) Tool: armasm [4d35ec]
    ArmAsm --debug --xref --diag_suppress=9931 --cpu=Cortex-M3 --apcs=interwork --depend=.\startup_cm3ds.d  -I.\RTE\_Target_1 -I"D:\Program Files\Keil\Keil_v5\Arm\Packs\Keil\V2M-MPS2_CMx_BSP\1.7.0\Device\CMSDK_CM3\Include" -I"D:\Program
    system_init.o
    
    Component: ARM Compiler 5.06 update 6 (build 750) Tool: armlink [4d35ed]
    armlink --partial --no_add_relocs_to_undefined --no_generate_mapping_symbols --diag_suppress=9931,9931,6642 --cpu=Cortex-M3 --fpu=SoftVFP --output=.\system_init.o --vfemode=force

    Input Comments:
    
    p37b4-3
    
    Component: ARM Compiler 5.06 update 6 (build 750) Tool: armasm [4d35ec]
    armasm --debug --diag_suppress=9931,9931,1602,1073 --cpu=Cortex-M3 --fpu=SoftVFP --apcs=/interwork/interwork --divide 
    system_init.o
    
    Component: ARM Compiler 5.06 update 6 (build 750) Tool: ArmCC [4d3637]
    ArmCC --c99 --split_sections --debug -c --gnu -o.\system_init.o --depend=.\system_init.d --cpu=Cortex-M3 --apcs=interwork -O0 --diag_suppress=9931 -I.\RTE\_Target_1 -I"D:\Program Files\Keil\Keil_v5\Arm\Packs\Keil\V2M-MPS2_CMx_BSP\1.7.0\Device\CMSDK_CM3\Include" -I"D:\Program Files\Keil\Keil_v5\ARM\CMSIS\Include" -D__MICROLIB -D__UVISION_VERSION=529 -DCMSDK_CM3 --omf_browse=.\system_init.crf ..\Software\with_camera\system_init.c
    
    
    
    
    
    systick.o
    
    Component: ARM Compiler 5.06 update 6 (build 750) Tool: armlink [4d35ed]
    armlink --partial --no_add_relocs_to_undefined --no_generate_mapping_symbols --diag_suppress=9931,9931,6642 --cpu=Cortex-M3 --fpu=SoftVFP --output=.\systick.o --vfemode=force

    Input Comments:
    
    p4bac-3
    
    Component: ARM Compiler 5.06 update 6 (build 750) Tool: armasm [4d35ec]
    armasm --debug --diag_suppress=9931,9931,1602,1073 --cpu=Cortex-M3 --fpu=SoftVFP --apcs=/interwork/interwork --divide 
    systick.o
    
    Component: ARM Compiler 5.06 update 6 (build 750) Tool: ArmCC [4d3637]
    ArmCC --c99 --split_sections --debug -c --gnu -o.\systick.o --depend=.\systick.d --cpu=Cortex-M3 --apcs=interwork -O0 --diag_suppress=9931 -I.\RTE\_Target_1 -I"D:\Program Files\Keil\Keil_v5\Arm\Packs\Keil\V2M-MPS2_CMx_BSP\1.7.0\Device\CMSDK_CM3\Include" -I"D:\Program Files\Keil\Keil_v5\ARM\CMSIS\Include" -D__MICROLIB -D__UVISION_VERSION=529 -DCMSDK_CM3 --omf_browse=.\systick.crf ..\Software\with_camera\systick.c
    
    
    
    
    
    test_acc.o
    
    Component: ARM Compiler 5.06 update 6 (build 750) Tool: armlink [4d35ed]
    armlink --partial --no_add_relocs_to_undefined --no_generate_mapping_symbols --diag_suppress=9931,9931,6642 --cpu=Cortex-M3 --fpu=SoftVFP --output=.\test_acc.o --vfemode=force

    Input Comments:
    
    p4bcc-3
    
    Component: ARM Compiler 5.06 update 6 (build 750) Tool: armasm [4d35ec]
    armasm --debug --diag_suppress=9931,9931,1602,1073 --cpu=Cortex-M3 --fpu=SoftVFP --apcs=/interwork/interwork --divide 
    test_acc.o
    
    Component: ARM Compiler 5.06 update 6 (build 750) Tool: ArmCC [4d3637]
    ArmCC --c99 --split_sections --debug -c --gnu -o.\test_acc.o --depend=.\test_acc.d --cpu=Cortex-M3 --apcs=interwork -O0 --diag_suppress=9931 -I.\RTE\_Target_1 -I"D:\Program Files\Keil\Keil_v5\Arm\Packs\Keil\V2M-MPS2_CMx_BSP\1.7.0\Device\CMSDK_CM3\Include" -I"D:\Program Files\Keil\Keil_v5\ARM\CMSIS\Include" -D__MICROLIB -D__UVISION_VERSION=529 -DCMSDK_CM3 --omf_browse=.\test_acc.crf ..\Software\with_camera\test_acc.c
    
    
    
    timer.o
    
    Component: ARM Compiler 5.06 update 6 (build 750) Tool: armlink [4d35ed]
    armlink --partial --no_add_relocs_to_undefined --no_generate_mapping_symbols --diag_suppress=9931,9931,6642 --cpu=Cortex-M3 --fpu=SoftVFP --output=.\timer.o --vfemode=force

    Input Comments:
    
    p4b2c-3
    
    Component: ARM Compiler 5.06 update 6 (build 750) Tool: armasm [4d35ec]
    armasm --debug --diag_suppress=9931,9931,1602,1073 --cpu=Cortex-M3 --fpu=SoftVFP --apcs=/interwork/interwork --divide 
    timer.o
    
    Component: ARM Compiler 5.06 update 6 (build 750) Tool: ArmCC [4d3637]
    ArmCC --c99 --split_sections --debug -c --gnu -o.\timer.o --depend=.\timer.d --cpu=Cortex-M3 --apcs=interwork -O0 --diag_suppress=9931 -I.\RTE\_Target_1 -I"D:\Program Files\Keil\Keil_v5\Arm\Packs\Keil\V2M-MPS2_CMx_BSP\1.7.0\Device\CMSDK_CM3\Include" -I"D:\Program Files\Keil\Keil_v5\ARM\CMSIS\Include" -D__MICROLIB -D__UVISION_VERSION=529 -DCMSDK_CM3 --omf_browse=.\timer.crf ..\Software\with_camera\timer.c
    
    
    
    
    
    uart.o
    
    Component: ARM Compiler 5.06 update 6 (build 750) Tool: armlink [4d35ed]
    armlink --partial --no_add_relocs_to_undefined --no_generate_mapping_symbols --diag_suppress=9931,9931,6642 --cpu=Cortex-M3 --fpu=SoftVFP --output=.\uart.o --vfemode=force

    Input Comments:
    
    p4b4c-3
    
    Component: ARM Compiler 5.06 update 6 (build 750) Tool: armasm [4d35ec]
    armasm --debug --diag_suppress=9931,9931,1602,1073 --cpu=Cortex-M3 --fpu=SoftVFP --apcs=/interwork/interwork --divide 
    uart.o
    
    Component: ARM Compiler 5.06 update 6 (build 750) Tool: ArmCC [4d3637]
    ArmCC --c99 --split_sections --debug -c --gnu -o.\uart.o --depend=.\uart.d --cpu=Cortex-M3 --apcs=interwork -O0 --diag_suppress=9931 -I.\RTE\_Target_1 -I"D:\Program Files\Keil\Keil_v5\Arm\Packs\Keil\V2M-MPS2_CMx_BSP\1.7.0\Device\CMSDK_CM3\Include" -I"D:\Program Files\Keil\Keil_v5\ARM\CMSIS\Include" -D__MICROLIB -D__UVISION_VERSION=529 -DCMSDK_CM3 --omf_browse=.\uart.crf ..\Software\with_camera\uart.c
    
    
    
    
    
    

====================================

** Section #15

    Name        : .shstrtab
    Type        : SHT_STRTAB (0x00000003)
    Flags       : None (0x00000000)
    Addr        : 0x00000000
    File Offset : 126800 (0x1ef50)
    Size        : 156 bytes (0x9c)
    Link        : SHN_UNDEF
    Info        : 0
    Alignment   : 1
    Entry Size  : 0


====================================

